ARM GAS  C:\Users\bvv64\AppData\Local\Temp\ccg7jOW9.s 			page 1


   1              		.cpu cortex-m0
   2              		.arch armv6s-m
   3              		.fpu softvfp
   4              		.eabi_attribute 20, 1
   5              		.eabi_attribute 21, 1
   6              		.eabi_attribute 23, 3
   7              		.eabi_attribute 24, 1
   8              		.eabi_attribute 25, 1
   9              		.eabi_attribute 26, 1
  10              		.eabi_attribute 30, 1
  11              		.eabi_attribute 34, 0
  12              		.eabi_attribute 18, 4
  13              		.file	"control.c"
  14              		.text
  15              	.Ltext0:
  16              		.cfi_sections	.debug_frame
  17              		.section	.text.init_Control,"ax",%progbits
  18              		.align	1
  19              		.global	init_Control
  20              		.syntax unified
  21              		.code	16
  22              		.thumb_func
  24              	init_Control:
  25              	.LFB334:
  26              		.file 1 "Core/Src/control.c"
   1:Core/Src/control.c **** /*
   2:Core/Src/control.c **** 
   3:Core/Src/control.c **** */
   4:Core/Src/control.c **** 
   5:Core/Src/control.c **** #include "control.h"
   6:Core/Src/control.c **** #include "buttons.h"
   7:Core/Src/control.c **** 
   8:Core/Src/control.c **** t_readyToRead fReady;
   9:Core/Src/control.c **** t_stateShow stateShow;
  10:Core/Src/control.c **** t_buttonState butSet, butSelect;
  11:Core/Src/control.c **** 
  12:Core/Src/control.c **** const uint8_t MAX_MINUTES = 59;
  13:Core/Src/control.c **** const uint8_t MAX_HOURS = 23;
  14:Core/Src/control.c **** const uint8_t MAX_DATE = 31;
  15:Core/Src/control.c **** const uint8_t MAX_MONTH = 12;
  16:Core/Src/control.c **** const uint8_t MAX_YEAR = 99;
  17:Core/Src/control.c **** 
  18:Core/Src/control.c **** 
  19:Core/Src/control.c **** void init_Control(void){
  27              		.loc 1 19 24 view -0
  28              		.cfi_startproc
  29              		@ args = 0, pretend = 0, frame = 24
  30              		@ frame_needed = 0, uses_anonymous_args = 0
  31 0000 70B5     		push	{r4, r5, r6, lr}
  32              	.LCFI0:
  33              		.cfi_def_cfa_offset 16
  34              		.cfi_offset 4, -16
  35              		.cfi_offset 5, -12
  36              		.cfi_offset 6, -8
  37              		.cfi_offset 14, -4
  38 0002 86B0     		sub	sp, sp, #24
  39              	.LCFI1:
ARM GAS  C:\Users\bvv64\AppData\Local\Temp\ccg7jOW9.s 			page 2


  40              		.cfi_def_cfa_offset 40
  20:Core/Src/control.c ****     //PA0, PA1 as output push-pull low speed (светодиоды "двоеточия")
  21:Core/Src/control.c ****     LL_GPIO_InitTypeDef GPIO_InitStruct = {0};
  41              		.loc 1 21 5 view .LVU1
  42              		.loc 1 21 25 is_stmt 0 view .LVU2
  43 0004 1822     		movs	r2, #24
  44 0006 0021     		movs	r1, #0
  45 0008 6846     		mov	r0, sp
  46 000a FFF7FEFF 		bl	memset
  47              	.LVL0:
  22:Core/Src/control.c **** 
  23:Core/Src/control.c ****     LL_GPIO_ResetOutputPin(GPIOA, LL_GPIO_PIN_0);
  48              		.loc 1 23 5 is_stmt 1 view .LVU3
  49              	.LBB10:
  50              	.LBI10:
  51              		.file 2 "Drivers/STM32F0xx_HAL_Driver/Inc/stm32f0xx_ll_gpio.h"
   1:Drivers/STM32F0xx_HAL_Driver/Inc/stm32f0xx_ll_gpio.h **** /**
   2:Drivers/STM32F0xx_HAL_Driver/Inc/stm32f0xx_ll_gpio.h ****   ******************************************************************************
   3:Drivers/STM32F0xx_HAL_Driver/Inc/stm32f0xx_ll_gpio.h ****   * @file    stm32f0xx_ll_gpio.h
   4:Drivers/STM32F0xx_HAL_Driver/Inc/stm32f0xx_ll_gpio.h ****   * @author  MCD Application Team
   5:Drivers/STM32F0xx_HAL_Driver/Inc/stm32f0xx_ll_gpio.h ****   * @brief   Header file of GPIO LL module.
   6:Drivers/STM32F0xx_HAL_Driver/Inc/stm32f0xx_ll_gpio.h ****   ******************************************************************************
   7:Drivers/STM32F0xx_HAL_Driver/Inc/stm32f0xx_ll_gpio.h ****   * @attention
   8:Drivers/STM32F0xx_HAL_Driver/Inc/stm32f0xx_ll_gpio.h ****   *
   9:Drivers/STM32F0xx_HAL_Driver/Inc/stm32f0xx_ll_gpio.h ****   * <h2><center>&copy; Copyright (c) 2016 STMicroelectronics.
  10:Drivers/STM32F0xx_HAL_Driver/Inc/stm32f0xx_ll_gpio.h ****   * All rights reserved.</center></h2>
  11:Drivers/STM32F0xx_HAL_Driver/Inc/stm32f0xx_ll_gpio.h ****   *
  12:Drivers/STM32F0xx_HAL_Driver/Inc/stm32f0xx_ll_gpio.h ****   * This software component is licensed by ST under BSD 3-Clause license,
  13:Drivers/STM32F0xx_HAL_Driver/Inc/stm32f0xx_ll_gpio.h ****   * the "License"; You may not use this file except in compliance with the
  14:Drivers/STM32F0xx_HAL_Driver/Inc/stm32f0xx_ll_gpio.h ****   * License. You may obtain a copy of the License at:
  15:Drivers/STM32F0xx_HAL_Driver/Inc/stm32f0xx_ll_gpio.h ****   *                        opensource.org/licenses/BSD-3-Clause
  16:Drivers/STM32F0xx_HAL_Driver/Inc/stm32f0xx_ll_gpio.h ****   *
  17:Drivers/STM32F0xx_HAL_Driver/Inc/stm32f0xx_ll_gpio.h ****   ******************************************************************************
  18:Drivers/STM32F0xx_HAL_Driver/Inc/stm32f0xx_ll_gpio.h ****   */
  19:Drivers/STM32F0xx_HAL_Driver/Inc/stm32f0xx_ll_gpio.h **** 
  20:Drivers/STM32F0xx_HAL_Driver/Inc/stm32f0xx_ll_gpio.h **** /* Define to prevent recursive inclusion -------------------------------------*/
  21:Drivers/STM32F0xx_HAL_Driver/Inc/stm32f0xx_ll_gpio.h **** #ifndef __STM32F0xx_LL_GPIO_H
  22:Drivers/STM32F0xx_HAL_Driver/Inc/stm32f0xx_ll_gpio.h **** #define __STM32F0xx_LL_GPIO_H
  23:Drivers/STM32F0xx_HAL_Driver/Inc/stm32f0xx_ll_gpio.h **** 
  24:Drivers/STM32F0xx_HAL_Driver/Inc/stm32f0xx_ll_gpio.h **** #ifdef __cplusplus
  25:Drivers/STM32F0xx_HAL_Driver/Inc/stm32f0xx_ll_gpio.h **** extern "C" {
  26:Drivers/STM32F0xx_HAL_Driver/Inc/stm32f0xx_ll_gpio.h **** #endif
  27:Drivers/STM32F0xx_HAL_Driver/Inc/stm32f0xx_ll_gpio.h **** 
  28:Drivers/STM32F0xx_HAL_Driver/Inc/stm32f0xx_ll_gpio.h **** /* Includes ------------------------------------------------------------------*/
  29:Drivers/STM32F0xx_HAL_Driver/Inc/stm32f0xx_ll_gpio.h **** #include "stm32f0xx.h"
  30:Drivers/STM32F0xx_HAL_Driver/Inc/stm32f0xx_ll_gpio.h **** 
  31:Drivers/STM32F0xx_HAL_Driver/Inc/stm32f0xx_ll_gpio.h **** /** @addtogroup STM32F0xx_LL_Driver
  32:Drivers/STM32F0xx_HAL_Driver/Inc/stm32f0xx_ll_gpio.h ****   * @{
  33:Drivers/STM32F0xx_HAL_Driver/Inc/stm32f0xx_ll_gpio.h ****   */
  34:Drivers/STM32F0xx_HAL_Driver/Inc/stm32f0xx_ll_gpio.h **** 
  35:Drivers/STM32F0xx_HAL_Driver/Inc/stm32f0xx_ll_gpio.h **** #if defined (GPIOA) || defined (GPIOB) || defined (GPIOC) || defined (GPIOD) || defined (GPIOE) || 
  36:Drivers/STM32F0xx_HAL_Driver/Inc/stm32f0xx_ll_gpio.h **** 
  37:Drivers/STM32F0xx_HAL_Driver/Inc/stm32f0xx_ll_gpio.h **** /** @defgroup GPIO_LL GPIO
  38:Drivers/STM32F0xx_HAL_Driver/Inc/stm32f0xx_ll_gpio.h ****   * @{
  39:Drivers/STM32F0xx_HAL_Driver/Inc/stm32f0xx_ll_gpio.h ****   */
  40:Drivers/STM32F0xx_HAL_Driver/Inc/stm32f0xx_ll_gpio.h **** 
  41:Drivers/STM32F0xx_HAL_Driver/Inc/stm32f0xx_ll_gpio.h **** /* Private types -------------------------------------------------------------*/
ARM GAS  C:\Users\bvv64\AppData\Local\Temp\ccg7jOW9.s 			page 3


  42:Drivers/STM32F0xx_HAL_Driver/Inc/stm32f0xx_ll_gpio.h **** /* Private variables ---------------------------------------------------------*/
  43:Drivers/STM32F0xx_HAL_Driver/Inc/stm32f0xx_ll_gpio.h **** /* Private constants ---------------------------------------------------------*/
  44:Drivers/STM32F0xx_HAL_Driver/Inc/stm32f0xx_ll_gpio.h **** /* Private macros ------------------------------------------------------------*/
  45:Drivers/STM32F0xx_HAL_Driver/Inc/stm32f0xx_ll_gpio.h **** #if defined(USE_FULL_LL_DRIVER)
  46:Drivers/STM32F0xx_HAL_Driver/Inc/stm32f0xx_ll_gpio.h **** /** @defgroup GPIO_LL_Private_Macros GPIO Private Macros
  47:Drivers/STM32F0xx_HAL_Driver/Inc/stm32f0xx_ll_gpio.h ****   * @{
  48:Drivers/STM32F0xx_HAL_Driver/Inc/stm32f0xx_ll_gpio.h ****   */
  49:Drivers/STM32F0xx_HAL_Driver/Inc/stm32f0xx_ll_gpio.h **** 
  50:Drivers/STM32F0xx_HAL_Driver/Inc/stm32f0xx_ll_gpio.h **** /**
  51:Drivers/STM32F0xx_HAL_Driver/Inc/stm32f0xx_ll_gpio.h ****   * @}
  52:Drivers/STM32F0xx_HAL_Driver/Inc/stm32f0xx_ll_gpio.h ****   */
  53:Drivers/STM32F0xx_HAL_Driver/Inc/stm32f0xx_ll_gpio.h **** #endif /*USE_FULL_LL_DRIVER*/
  54:Drivers/STM32F0xx_HAL_Driver/Inc/stm32f0xx_ll_gpio.h **** 
  55:Drivers/STM32F0xx_HAL_Driver/Inc/stm32f0xx_ll_gpio.h **** /* Exported types ------------------------------------------------------------*/
  56:Drivers/STM32F0xx_HAL_Driver/Inc/stm32f0xx_ll_gpio.h **** #if defined(USE_FULL_LL_DRIVER)
  57:Drivers/STM32F0xx_HAL_Driver/Inc/stm32f0xx_ll_gpio.h **** /** @defgroup GPIO_LL_ES_INIT GPIO Exported Init structures
  58:Drivers/STM32F0xx_HAL_Driver/Inc/stm32f0xx_ll_gpio.h ****   * @{
  59:Drivers/STM32F0xx_HAL_Driver/Inc/stm32f0xx_ll_gpio.h ****   */
  60:Drivers/STM32F0xx_HAL_Driver/Inc/stm32f0xx_ll_gpio.h **** 
  61:Drivers/STM32F0xx_HAL_Driver/Inc/stm32f0xx_ll_gpio.h **** /**
  62:Drivers/STM32F0xx_HAL_Driver/Inc/stm32f0xx_ll_gpio.h ****   * @brief LL GPIO Init Structure definition
  63:Drivers/STM32F0xx_HAL_Driver/Inc/stm32f0xx_ll_gpio.h ****   */
  64:Drivers/STM32F0xx_HAL_Driver/Inc/stm32f0xx_ll_gpio.h **** typedef struct
  65:Drivers/STM32F0xx_HAL_Driver/Inc/stm32f0xx_ll_gpio.h **** {
  66:Drivers/STM32F0xx_HAL_Driver/Inc/stm32f0xx_ll_gpio.h ****   uint32_t Pin;          /*!< Specifies the GPIO pins to be configured.
  67:Drivers/STM32F0xx_HAL_Driver/Inc/stm32f0xx_ll_gpio.h ****                               This parameter can be any value of @ref GPIO_LL_EC_PIN */
  68:Drivers/STM32F0xx_HAL_Driver/Inc/stm32f0xx_ll_gpio.h **** 
  69:Drivers/STM32F0xx_HAL_Driver/Inc/stm32f0xx_ll_gpio.h ****   uint32_t Mode;         /*!< Specifies the operating mode for the selected pins.
  70:Drivers/STM32F0xx_HAL_Driver/Inc/stm32f0xx_ll_gpio.h ****                               This parameter can be a value of @ref GPIO_LL_EC_MODE.
  71:Drivers/STM32F0xx_HAL_Driver/Inc/stm32f0xx_ll_gpio.h **** 
  72:Drivers/STM32F0xx_HAL_Driver/Inc/stm32f0xx_ll_gpio.h ****                               GPIO HW configuration can be modified afterwards using unitary functi
  73:Drivers/STM32F0xx_HAL_Driver/Inc/stm32f0xx_ll_gpio.h **** 
  74:Drivers/STM32F0xx_HAL_Driver/Inc/stm32f0xx_ll_gpio.h ****   uint32_t Speed;        /*!< Specifies the speed for the selected pins.
  75:Drivers/STM32F0xx_HAL_Driver/Inc/stm32f0xx_ll_gpio.h ****                               This parameter can be a value of @ref GPIO_LL_EC_SPEED.
  76:Drivers/STM32F0xx_HAL_Driver/Inc/stm32f0xx_ll_gpio.h **** 
  77:Drivers/STM32F0xx_HAL_Driver/Inc/stm32f0xx_ll_gpio.h ****                               GPIO HW configuration can be modified afterwards using unitary functi
  78:Drivers/STM32F0xx_HAL_Driver/Inc/stm32f0xx_ll_gpio.h **** 
  79:Drivers/STM32F0xx_HAL_Driver/Inc/stm32f0xx_ll_gpio.h ****   uint32_t OutputType;   /*!< Specifies the operating output type for the selected pins.
  80:Drivers/STM32F0xx_HAL_Driver/Inc/stm32f0xx_ll_gpio.h ****                               This parameter can be a value of @ref GPIO_LL_EC_OUTPUT.
  81:Drivers/STM32F0xx_HAL_Driver/Inc/stm32f0xx_ll_gpio.h **** 
  82:Drivers/STM32F0xx_HAL_Driver/Inc/stm32f0xx_ll_gpio.h ****                               GPIO HW configuration can be modified afterwards using unitary functi
  83:Drivers/STM32F0xx_HAL_Driver/Inc/stm32f0xx_ll_gpio.h **** 
  84:Drivers/STM32F0xx_HAL_Driver/Inc/stm32f0xx_ll_gpio.h ****   uint32_t Pull;         /*!< Specifies the operating Pull-up/Pull down for the selected pins.
  85:Drivers/STM32F0xx_HAL_Driver/Inc/stm32f0xx_ll_gpio.h ****                               This parameter can be a value of @ref GPIO_LL_EC_PULL.
  86:Drivers/STM32F0xx_HAL_Driver/Inc/stm32f0xx_ll_gpio.h **** 
  87:Drivers/STM32F0xx_HAL_Driver/Inc/stm32f0xx_ll_gpio.h ****                               GPIO HW configuration can be modified afterwards using unitary functi
  88:Drivers/STM32F0xx_HAL_Driver/Inc/stm32f0xx_ll_gpio.h **** 
  89:Drivers/STM32F0xx_HAL_Driver/Inc/stm32f0xx_ll_gpio.h ****   uint32_t Alternate;    /*!< Specifies the Peripheral to be connected to the selected pins.
  90:Drivers/STM32F0xx_HAL_Driver/Inc/stm32f0xx_ll_gpio.h ****                               This parameter can be a value of @ref GPIO_LL_EC_AF.
  91:Drivers/STM32F0xx_HAL_Driver/Inc/stm32f0xx_ll_gpio.h **** 
  92:Drivers/STM32F0xx_HAL_Driver/Inc/stm32f0xx_ll_gpio.h ****                               GPIO HW configuration can be modified afterwards using unitary functi
  93:Drivers/STM32F0xx_HAL_Driver/Inc/stm32f0xx_ll_gpio.h **** } LL_GPIO_InitTypeDef;
  94:Drivers/STM32F0xx_HAL_Driver/Inc/stm32f0xx_ll_gpio.h **** 
  95:Drivers/STM32F0xx_HAL_Driver/Inc/stm32f0xx_ll_gpio.h **** /**
  96:Drivers/STM32F0xx_HAL_Driver/Inc/stm32f0xx_ll_gpio.h ****   * @}
  97:Drivers/STM32F0xx_HAL_Driver/Inc/stm32f0xx_ll_gpio.h ****   */
  98:Drivers/STM32F0xx_HAL_Driver/Inc/stm32f0xx_ll_gpio.h **** #endif /* USE_FULL_LL_DRIVER */
ARM GAS  C:\Users\bvv64\AppData\Local\Temp\ccg7jOW9.s 			page 4


  99:Drivers/STM32F0xx_HAL_Driver/Inc/stm32f0xx_ll_gpio.h **** 
 100:Drivers/STM32F0xx_HAL_Driver/Inc/stm32f0xx_ll_gpio.h **** /* Exported constants --------------------------------------------------------*/
 101:Drivers/STM32F0xx_HAL_Driver/Inc/stm32f0xx_ll_gpio.h **** /** @defgroup GPIO_LL_Exported_Constants GPIO Exported Constants
 102:Drivers/STM32F0xx_HAL_Driver/Inc/stm32f0xx_ll_gpio.h ****   * @{
 103:Drivers/STM32F0xx_HAL_Driver/Inc/stm32f0xx_ll_gpio.h ****   */
 104:Drivers/STM32F0xx_HAL_Driver/Inc/stm32f0xx_ll_gpio.h **** 
 105:Drivers/STM32F0xx_HAL_Driver/Inc/stm32f0xx_ll_gpio.h **** /** @defgroup GPIO_LL_EC_PIN PIN
 106:Drivers/STM32F0xx_HAL_Driver/Inc/stm32f0xx_ll_gpio.h ****   * @{
 107:Drivers/STM32F0xx_HAL_Driver/Inc/stm32f0xx_ll_gpio.h ****   */
 108:Drivers/STM32F0xx_HAL_Driver/Inc/stm32f0xx_ll_gpio.h **** #define LL_GPIO_PIN_0                      GPIO_BSRR_BS_0 /*!< Select pin 0 */
 109:Drivers/STM32F0xx_HAL_Driver/Inc/stm32f0xx_ll_gpio.h **** #define LL_GPIO_PIN_1                      GPIO_BSRR_BS_1 /*!< Select pin 1 */
 110:Drivers/STM32F0xx_HAL_Driver/Inc/stm32f0xx_ll_gpio.h **** #define LL_GPIO_PIN_2                      GPIO_BSRR_BS_2 /*!< Select pin 2 */
 111:Drivers/STM32F0xx_HAL_Driver/Inc/stm32f0xx_ll_gpio.h **** #define LL_GPIO_PIN_3                      GPIO_BSRR_BS_3 /*!< Select pin 3 */
 112:Drivers/STM32F0xx_HAL_Driver/Inc/stm32f0xx_ll_gpio.h **** #define LL_GPIO_PIN_4                      GPIO_BSRR_BS_4 /*!< Select pin 4 */
 113:Drivers/STM32F0xx_HAL_Driver/Inc/stm32f0xx_ll_gpio.h **** #define LL_GPIO_PIN_5                      GPIO_BSRR_BS_5 /*!< Select pin 5 */
 114:Drivers/STM32F0xx_HAL_Driver/Inc/stm32f0xx_ll_gpio.h **** #define LL_GPIO_PIN_6                      GPIO_BSRR_BS_6 /*!< Select pin 6 */
 115:Drivers/STM32F0xx_HAL_Driver/Inc/stm32f0xx_ll_gpio.h **** #define LL_GPIO_PIN_7                      GPIO_BSRR_BS_7 /*!< Select pin 7 */
 116:Drivers/STM32F0xx_HAL_Driver/Inc/stm32f0xx_ll_gpio.h **** #define LL_GPIO_PIN_8                      GPIO_BSRR_BS_8 /*!< Select pin 8 */
 117:Drivers/STM32F0xx_HAL_Driver/Inc/stm32f0xx_ll_gpio.h **** #define LL_GPIO_PIN_9                      GPIO_BSRR_BS_9 /*!< Select pin 9 */
 118:Drivers/STM32F0xx_HAL_Driver/Inc/stm32f0xx_ll_gpio.h **** #define LL_GPIO_PIN_10                     GPIO_BSRR_BS_10 /*!< Select pin 10 */
 119:Drivers/STM32F0xx_HAL_Driver/Inc/stm32f0xx_ll_gpio.h **** #define LL_GPIO_PIN_11                     GPIO_BSRR_BS_11 /*!< Select pin 11 */
 120:Drivers/STM32F0xx_HAL_Driver/Inc/stm32f0xx_ll_gpio.h **** #define LL_GPIO_PIN_12                     GPIO_BSRR_BS_12 /*!< Select pin 12 */
 121:Drivers/STM32F0xx_HAL_Driver/Inc/stm32f0xx_ll_gpio.h **** #define LL_GPIO_PIN_13                     GPIO_BSRR_BS_13 /*!< Select pin 13 */
 122:Drivers/STM32F0xx_HAL_Driver/Inc/stm32f0xx_ll_gpio.h **** #define LL_GPIO_PIN_14                     GPIO_BSRR_BS_14 /*!< Select pin 14 */
 123:Drivers/STM32F0xx_HAL_Driver/Inc/stm32f0xx_ll_gpio.h **** #define LL_GPIO_PIN_15                     GPIO_BSRR_BS_15 /*!< Select pin 15 */
 124:Drivers/STM32F0xx_HAL_Driver/Inc/stm32f0xx_ll_gpio.h **** #define LL_GPIO_PIN_ALL                    (GPIO_BSRR_BS_0 | GPIO_BSRR_BS_1  | GPIO_BSRR_BS_2  | \
 125:Drivers/STM32F0xx_HAL_Driver/Inc/stm32f0xx_ll_gpio.h ****                                            GPIO_BSRR_BS_3  | GPIO_BSRR_BS_4  | GPIO_BSRR_BS_5  | \
 126:Drivers/STM32F0xx_HAL_Driver/Inc/stm32f0xx_ll_gpio.h ****                                            GPIO_BSRR_BS_6  | GPIO_BSRR_BS_7  | GPIO_BSRR_BS_8  | \
 127:Drivers/STM32F0xx_HAL_Driver/Inc/stm32f0xx_ll_gpio.h ****                                            GPIO_BSRR_BS_9  | GPIO_BSRR_BS_10 | GPIO_BSRR_BS_11 | \
 128:Drivers/STM32F0xx_HAL_Driver/Inc/stm32f0xx_ll_gpio.h ****                                            GPIO_BSRR_BS_12 | GPIO_BSRR_BS_13 | GPIO_BSRR_BS_14 | \
 129:Drivers/STM32F0xx_HAL_Driver/Inc/stm32f0xx_ll_gpio.h ****                                            GPIO_BSRR_BS_15) /*!< Select all pins */
 130:Drivers/STM32F0xx_HAL_Driver/Inc/stm32f0xx_ll_gpio.h **** /**
 131:Drivers/STM32F0xx_HAL_Driver/Inc/stm32f0xx_ll_gpio.h ****   * @}
 132:Drivers/STM32F0xx_HAL_Driver/Inc/stm32f0xx_ll_gpio.h ****   */
 133:Drivers/STM32F0xx_HAL_Driver/Inc/stm32f0xx_ll_gpio.h **** 
 134:Drivers/STM32F0xx_HAL_Driver/Inc/stm32f0xx_ll_gpio.h **** /** @defgroup GPIO_LL_EC_MODE Mode
 135:Drivers/STM32F0xx_HAL_Driver/Inc/stm32f0xx_ll_gpio.h ****   * @{
 136:Drivers/STM32F0xx_HAL_Driver/Inc/stm32f0xx_ll_gpio.h ****   */
 137:Drivers/STM32F0xx_HAL_Driver/Inc/stm32f0xx_ll_gpio.h **** #define LL_GPIO_MODE_INPUT                 (0x00000000U) /*!< Select input mode */
 138:Drivers/STM32F0xx_HAL_Driver/Inc/stm32f0xx_ll_gpio.h **** #define LL_GPIO_MODE_OUTPUT                GPIO_MODER_MODER0_0  /*!< Select output mode */
 139:Drivers/STM32F0xx_HAL_Driver/Inc/stm32f0xx_ll_gpio.h **** #define LL_GPIO_MODE_ALTERNATE             GPIO_MODER_MODER0_1  /*!< Select alternate function mode
 140:Drivers/STM32F0xx_HAL_Driver/Inc/stm32f0xx_ll_gpio.h **** #define LL_GPIO_MODE_ANALOG                GPIO_MODER_MODER0    /*!< Select analog mode */
 141:Drivers/STM32F0xx_HAL_Driver/Inc/stm32f0xx_ll_gpio.h **** /**
 142:Drivers/STM32F0xx_HAL_Driver/Inc/stm32f0xx_ll_gpio.h ****   * @}
 143:Drivers/STM32F0xx_HAL_Driver/Inc/stm32f0xx_ll_gpio.h ****   */
 144:Drivers/STM32F0xx_HAL_Driver/Inc/stm32f0xx_ll_gpio.h **** 
 145:Drivers/STM32F0xx_HAL_Driver/Inc/stm32f0xx_ll_gpio.h **** /** @defgroup GPIO_LL_EC_OUTPUT Output Type
 146:Drivers/STM32F0xx_HAL_Driver/Inc/stm32f0xx_ll_gpio.h ****   * @{
 147:Drivers/STM32F0xx_HAL_Driver/Inc/stm32f0xx_ll_gpio.h ****   */
 148:Drivers/STM32F0xx_HAL_Driver/Inc/stm32f0xx_ll_gpio.h **** #define LL_GPIO_OUTPUT_PUSHPULL            (0x00000000U) /*!< Select push-pull as output type */
 149:Drivers/STM32F0xx_HAL_Driver/Inc/stm32f0xx_ll_gpio.h **** #define LL_GPIO_OUTPUT_OPENDRAIN           GPIO_OTYPER_OT_0 /*!< Select open-drain as output type *
 150:Drivers/STM32F0xx_HAL_Driver/Inc/stm32f0xx_ll_gpio.h **** /**
 151:Drivers/STM32F0xx_HAL_Driver/Inc/stm32f0xx_ll_gpio.h ****   * @}
 152:Drivers/STM32F0xx_HAL_Driver/Inc/stm32f0xx_ll_gpio.h ****   */
 153:Drivers/STM32F0xx_HAL_Driver/Inc/stm32f0xx_ll_gpio.h **** 
 154:Drivers/STM32F0xx_HAL_Driver/Inc/stm32f0xx_ll_gpio.h **** /** @defgroup GPIO_LL_EC_SPEED Output Speed
 155:Drivers/STM32F0xx_HAL_Driver/Inc/stm32f0xx_ll_gpio.h ****   * @{
ARM GAS  C:\Users\bvv64\AppData\Local\Temp\ccg7jOW9.s 			page 5


 156:Drivers/STM32F0xx_HAL_Driver/Inc/stm32f0xx_ll_gpio.h ****   */
 157:Drivers/STM32F0xx_HAL_Driver/Inc/stm32f0xx_ll_gpio.h **** #define LL_GPIO_SPEED_FREQ_LOW             (0x00000000U) /*!< Select I/O low output speed    */
 158:Drivers/STM32F0xx_HAL_Driver/Inc/stm32f0xx_ll_gpio.h **** #define LL_GPIO_SPEED_FREQ_MEDIUM          GPIO_OSPEEDR_OSPEEDR0_0 /*!< Select I/O medium output sp
 159:Drivers/STM32F0xx_HAL_Driver/Inc/stm32f0xx_ll_gpio.h **** #define LL_GPIO_SPEED_FREQ_HIGH            GPIO_OSPEEDR_OSPEEDR0   /*!< Select I/O high output spee
 160:Drivers/STM32F0xx_HAL_Driver/Inc/stm32f0xx_ll_gpio.h **** /**
 161:Drivers/STM32F0xx_HAL_Driver/Inc/stm32f0xx_ll_gpio.h ****   * @}
 162:Drivers/STM32F0xx_HAL_Driver/Inc/stm32f0xx_ll_gpio.h ****   */
 163:Drivers/STM32F0xx_HAL_Driver/Inc/stm32f0xx_ll_gpio.h **** #define LL_GPIO_SPEED_LOW                  LL_GPIO_SPEED_FREQ_LOW
 164:Drivers/STM32F0xx_HAL_Driver/Inc/stm32f0xx_ll_gpio.h **** #define LL_GPIO_SPEED_MEDIUM               LL_GPIO_SPEED_FREQ_MEDIUM
 165:Drivers/STM32F0xx_HAL_Driver/Inc/stm32f0xx_ll_gpio.h **** #define LL_GPIO_SPEED_HIGH                 LL_GPIO_SPEED_FREQ_HIGH
 166:Drivers/STM32F0xx_HAL_Driver/Inc/stm32f0xx_ll_gpio.h **** 
 167:Drivers/STM32F0xx_HAL_Driver/Inc/stm32f0xx_ll_gpio.h **** /** @defgroup GPIO_LL_EC_PULL Pull Up Pull Down
 168:Drivers/STM32F0xx_HAL_Driver/Inc/stm32f0xx_ll_gpio.h ****   * @{
 169:Drivers/STM32F0xx_HAL_Driver/Inc/stm32f0xx_ll_gpio.h ****   */
 170:Drivers/STM32F0xx_HAL_Driver/Inc/stm32f0xx_ll_gpio.h **** #define LL_GPIO_PULL_NO                    (0x00000000U) /*!< Select I/O no pull */
 171:Drivers/STM32F0xx_HAL_Driver/Inc/stm32f0xx_ll_gpio.h **** #define LL_GPIO_PULL_UP                    GPIO_PUPDR_PUPDR0_0 /*!< Select I/O pull up */
 172:Drivers/STM32F0xx_HAL_Driver/Inc/stm32f0xx_ll_gpio.h **** #define LL_GPIO_PULL_DOWN                  GPIO_PUPDR_PUPDR0_1 /*!< Select I/O pull down */
 173:Drivers/STM32F0xx_HAL_Driver/Inc/stm32f0xx_ll_gpio.h **** /**
 174:Drivers/STM32F0xx_HAL_Driver/Inc/stm32f0xx_ll_gpio.h ****   * @}
 175:Drivers/STM32F0xx_HAL_Driver/Inc/stm32f0xx_ll_gpio.h ****   */
 176:Drivers/STM32F0xx_HAL_Driver/Inc/stm32f0xx_ll_gpio.h **** 
 177:Drivers/STM32F0xx_HAL_Driver/Inc/stm32f0xx_ll_gpio.h **** /** @defgroup GPIO_LL_EC_AF Alternate Function
 178:Drivers/STM32F0xx_HAL_Driver/Inc/stm32f0xx_ll_gpio.h ****   * @{
 179:Drivers/STM32F0xx_HAL_Driver/Inc/stm32f0xx_ll_gpio.h ****   */
 180:Drivers/STM32F0xx_HAL_Driver/Inc/stm32f0xx_ll_gpio.h **** #define LL_GPIO_AF_0                       (0x0000000U) /*!< Select alternate function 0 */
 181:Drivers/STM32F0xx_HAL_Driver/Inc/stm32f0xx_ll_gpio.h **** #define LL_GPIO_AF_1                       (0x0000001U) /*!< Select alternate function 1 */
 182:Drivers/STM32F0xx_HAL_Driver/Inc/stm32f0xx_ll_gpio.h **** #define LL_GPIO_AF_2                       (0x0000002U) /*!< Select alternate function 2 */
 183:Drivers/STM32F0xx_HAL_Driver/Inc/stm32f0xx_ll_gpio.h **** #define LL_GPIO_AF_3                       (0x0000003U) /*!< Select alternate function 3 */
 184:Drivers/STM32F0xx_HAL_Driver/Inc/stm32f0xx_ll_gpio.h **** #define LL_GPIO_AF_4                       (0x0000004U) /*!< Select alternate function 4 */
 185:Drivers/STM32F0xx_HAL_Driver/Inc/stm32f0xx_ll_gpio.h **** #define LL_GPIO_AF_5                       (0x0000005U) /*!< Select alternate function 5 */
 186:Drivers/STM32F0xx_HAL_Driver/Inc/stm32f0xx_ll_gpio.h **** #define LL_GPIO_AF_6                       (0x0000006U) /*!< Select alternate function 6 */
 187:Drivers/STM32F0xx_HAL_Driver/Inc/stm32f0xx_ll_gpio.h **** #define LL_GPIO_AF_7                       (0x0000007U) /*!< Select alternate function 7 */
 188:Drivers/STM32F0xx_HAL_Driver/Inc/stm32f0xx_ll_gpio.h **** /**
 189:Drivers/STM32F0xx_HAL_Driver/Inc/stm32f0xx_ll_gpio.h ****   * @}
 190:Drivers/STM32F0xx_HAL_Driver/Inc/stm32f0xx_ll_gpio.h ****   */
 191:Drivers/STM32F0xx_HAL_Driver/Inc/stm32f0xx_ll_gpio.h **** 
 192:Drivers/STM32F0xx_HAL_Driver/Inc/stm32f0xx_ll_gpio.h **** /**
 193:Drivers/STM32F0xx_HAL_Driver/Inc/stm32f0xx_ll_gpio.h ****   * @}
 194:Drivers/STM32F0xx_HAL_Driver/Inc/stm32f0xx_ll_gpio.h ****   */
 195:Drivers/STM32F0xx_HAL_Driver/Inc/stm32f0xx_ll_gpio.h **** 
 196:Drivers/STM32F0xx_HAL_Driver/Inc/stm32f0xx_ll_gpio.h **** /* Exported macro ------------------------------------------------------------*/
 197:Drivers/STM32F0xx_HAL_Driver/Inc/stm32f0xx_ll_gpio.h **** /** @defgroup GPIO_LL_Exported_Macros GPIO Exported Macros
 198:Drivers/STM32F0xx_HAL_Driver/Inc/stm32f0xx_ll_gpio.h ****   * @{
 199:Drivers/STM32F0xx_HAL_Driver/Inc/stm32f0xx_ll_gpio.h ****   */
 200:Drivers/STM32F0xx_HAL_Driver/Inc/stm32f0xx_ll_gpio.h **** 
 201:Drivers/STM32F0xx_HAL_Driver/Inc/stm32f0xx_ll_gpio.h **** /** @defgroup GPIO_LL_EM_WRITE_READ Common Write and read registers Macros
 202:Drivers/STM32F0xx_HAL_Driver/Inc/stm32f0xx_ll_gpio.h ****   * @{
 203:Drivers/STM32F0xx_HAL_Driver/Inc/stm32f0xx_ll_gpio.h ****   */
 204:Drivers/STM32F0xx_HAL_Driver/Inc/stm32f0xx_ll_gpio.h **** 
 205:Drivers/STM32F0xx_HAL_Driver/Inc/stm32f0xx_ll_gpio.h **** /**
 206:Drivers/STM32F0xx_HAL_Driver/Inc/stm32f0xx_ll_gpio.h ****   * @brief  Write a value in GPIO register
 207:Drivers/STM32F0xx_HAL_Driver/Inc/stm32f0xx_ll_gpio.h ****   * @param  __INSTANCE__ GPIO Instance
 208:Drivers/STM32F0xx_HAL_Driver/Inc/stm32f0xx_ll_gpio.h ****   * @param  __REG__ Register to be written
 209:Drivers/STM32F0xx_HAL_Driver/Inc/stm32f0xx_ll_gpio.h ****   * @param  __VALUE__ Value to be written in the register
 210:Drivers/STM32F0xx_HAL_Driver/Inc/stm32f0xx_ll_gpio.h ****   * @retval None
 211:Drivers/STM32F0xx_HAL_Driver/Inc/stm32f0xx_ll_gpio.h ****   */
 212:Drivers/STM32F0xx_HAL_Driver/Inc/stm32f0xx_ll_gpio.h **** #define LL_GPIO_WriteReg(__INSTANCE__, __REG__, __VALUE__) WRITE_REG(__INSTANCE__->__REG__, (__VALU
ARM GAS  C:\Users\bvv64\AppData\Local\Temp\ccg7jOW9.s 			page 6


 213:Drivers/STM32F0xx_HAL_Driver/Inc/stm32f0xx_ll_gpio.h **** 
 214:Drivers/STM32F0xx_HAL_Driver/Inc/stm32f0xx_ll_gpio.h **** /**
 215:Drivers/STM32F0xx_HAL_Driver/Inc/stm32f0xx_ll_gpio.h ****   * @brief  Read a value in GPIO register
 216:Drivers/STM32F0xx_HAL_Driver/Inc/stm32f0xx_ll_gpio.h ****   * @param  __INSTANCE__ GPIO Instance
 217:Drivers/STM32F0xx_HAL_Driver/Inc/stm32f0xx_ll_gpio.h ****   * @param  __REG__ Register to be read
 218:Drivers/STM32F0xx_HAL_Driver/Inc/stm32f0xx_ll_gpio.h ****   * @retval Register value
 219:Drivers/STM32F0xx_HAL_Driver/Inc/stm32f0xx_ll_gpio.h ****   */
 220:Drivers/STM32F0xx_HAL_Driver/Inc/stm32f0xx_ll_gpio.h **** #define LL_GPIO_ReadReg(__INSTANCE__, __REG__) READ_REG(__INSTANCE__->__REG__)
 221:Drivers/STM32F0xx_HAL_Driver/Inc/stm32f0xx_ll_gpio.h **** /**
 222:Drivers/STM32F0xx_HAL_Driver/Inc/stm32f0xx_ll_gpio.h ****   * @}
 223:Drivers/STM32F0xx_HAL_Driver/Inc/stm32f0xx_ll_gpio.h ****   */
 224:Drivers/STM32F0xx_HAL_Driver/Inc/stm32f0xx_ll_gpio.h **** 
 225:Drivers/STM32F0xx_HAL_Driver/Inc/stm32f0xx_ll_gpio.h **** /**
 226:Drivers/STM32F0xx_HAL_Driver/Inc/stm32f0xx_ll_gpio.h ****   * @}
 227:Drivers/STM32F0xx_HAL_Driver/Inc/stm32f0xx_ll_gpio.h ****   */
 228:Drivers/STM32F0xx_HAL_Driver/Inc/stm32f0xx_ll_gpio.h **** 
 229:Drivers/STM32F0xx_HAL_Driver/Inc/stm32f0xx_ll_gpio.h **** /* Exported functions --------------------------------------------------------*/
 230:Drivers/STM32F0xx_HAL_Driver/Inc/stm32f0xx_ll_gpio.h **** /** @defgroup GPIO_LL_Exported_Functions GPIO Exported Functions
 231:Drivers/STM32F0xx_HAL_Driver/Inc/stm32f0xx_ll_gpio.h ****   * @{
 232:Drivers/STM32F0xx_HAL_Driver/Inc/stm32f0xx_ll_gpio.h ****   */
 233:Drivers/STM32F0xx_HAL_Driver/Inc/stm32f0xx_ll_gpio.h **** 
 234:Drivers/STM32F0xx_HAL_Driver/Inc/stm32f0xx_ll_gpio.h **** /** @defgroup GPIO_LL_EF_Port_Configuration Port Configuration
 235:Drivers/STM32F0xx_HAL_Driver/Inc/stm32f0xx_ll_gpio.h ****   * @{
 236:Drivers/STM32F0xx_HAL_Driver/Inc/stm32f0xx_ll_gpio.h ****   */
 237:Drivers/STM32F0xx_HAL_Driver/Inc/stm32f0xx_ll_gpio.h **** 
 238:Drivers/STM32F0xx_HAL_Driver/Inc/stm32f0xx_ll_gpio.h **** /**
 239:Drivers/STM32F0xx_HAL_Driver/Inc/stm32f0xx_ll_gpio.h ****   * @brief  Configure gpio mode for a dedicated pin on dedicated port.
 240:Drivers/STM32F0xx_HAL_Driver/Inc/stm32f0xx_ll_gpio.h ****   * @note   I/O mode can be Input mode, General purpose output, Alternate function mode or Analog.
 241:Drivers/STM32F0xx_HAL_Driver/Inc/stm32f0xx_ll_gpio.h ****   * @note   Warning: only one pin can be passed as parameter.
 242:Drivers/STM32F0xx_HAL_Driver/Inc/stm32f0xx_ll_gpio.h ****   * @rmtoll MODER        MODEy         LL_GPIO_SetPinMode
 243:Drivers/STM32F0xx_HAL_Driver/Inc/stm32f0xx_ll_gpio.h ****   * @param  GPIOx GPIO Port
 244:Drivers/STM32F0xx_HAL_Driver/Inc/stm32f0xx_ll_gpio.h ****   * @param  Pin This parameter can be one of the following values:
 245:Drivers/STM32F0xx_HAL_Driver/Inc/stm32f0xx_ll_gpio.h ****   *         @arg @ref LL_GPIO_PIN_0
 246:Drivers/STM32F0xx_HAL_Driver/Inc/stm32f0xx_ll_gpio.h ****   *         @arg @ref LL_GPIO_PIN_1
 247:Drivers/STM32F0xx_HAL_Driver/Inc/stm32f0xx_ll_gpio.h ****   *         @arg @ref LL_GPIO_PIN_2
 248:Drivers/STM32F0xx_HAL_Driver/Inc/stm32f0xx_ll_gpio.h ****   *         @arg @ref LL_GPIO_PIN_3
 249:Drivers/STM32F0xx_HAL_Driver/Inc/stm32f0xx_ll_gpio.h ****   *         @arg @ref LL_GPIO_PIN_4
 250:Drivers/STM32F0xx_HAL_Driver/Inc/stm32f0xx_ll_gpio.h ****   *         @arg @ref LL_GPIO_PIN_5
 251:Drivers/STM32F0xx_HAL_Driver/Inc/stm32f0xx_ll_gpio.h ****   *         @arg @ref LL_GPIO_PIN_6
 252:Drivers/STM32F0xx_HAL_Driver/Inc/stm32f0xx_ll_gpio.h ****   *         @arg @ref LL_GPIO_PIN_7
 253:Drivers/STM32F0xx_HAL_Driver/Inc/stm32f0xx_ll_gpio.h ****   *         @arg @ref LL_GPIO_PIN_8
 254:Drivers/STM32F0xx_HAL_Driver/Inc/stm32f0xx_ll_gpio.h ****   *         @arg @ref LL_GPIO_PIN_9
 255:Drivers/STM32F0xx_HAL_Driver/Inc/stm32f0xx_ll_gpio.h ****   *         @arg @ref LL_GPIO_PIN_10
 256:Drivers/STM32F0xx_HAL_Driver/Inc/stm32f0xx_ll_gpio.h ****   *         @arg @ref LL_GPIO_PIN_11
 257:Drivers/STM32F0xx_HAL_Driver/Inc/stm32f0xx_ll_gpio.h ****   *         @arg @ref LL_GPIO_PIN_12
 258:Drivers/STM32F0xx_HAL_Driver/Inc/stm32f0xx_ll_gpio.h ****   *         @arg @ref LL_GPIO_PIN_13
 259:Drivers/STM32F0xx_HAL_Driver/Inc/stm32f0xx_ll_gpio.h ****   *         @arg @ref LL_GPIO_PIN_14
 260:Drivers/STM32F0xx_HAL_Driver/Inc/stm32f0xx_ll_gpio.h ****   *         @arg @ref LL_GPIO_PIN_15
 261:Drivers/STM32F0xx_HAL_Driver/Inc/stm32f0xx_ll_gpio.h ****   * @param  Mode This parameter can be one of the following values:
 262:Drivers/STM32F0xx_HAL_Driver/Inc/stm32f0xx_ll_gpio.h ****   *         @arg @ref LL_GPIO_MODE_INPUT
 263:Drivers/STM32F0xx_HAL_Driver/Inc/stm32f0xx_ll_gpio.h ****   *         @arg @ref LL_GPIO_MODE_OUTPUT
 264:Drivers/STM32F0xx_HAL_Driver/Inc/stm32f0xx_ll_gpio.h ****   *         @arg @ref LL_GPIO_MODE_ALTERNATE
 265:Drivers/STM32F0xx_HAL_Driver/Inc/stm32f0xx_ll_gpio.h ****   *         @arg @ref LL_GPIO_MODE_ANALOG
 266:Drivers/STM32F0xx_HAL_Driver/Inc/stm32f0xx_ll_gpio.h ****   * @retval None
 267:Drivers/STM32F0xx_HAL_Driver/Inc/stm32f0xx_ll_gpio.h ****   */
 268:Drivers/STM32F0xx_HAL_Driver/Inc/stm32f0xx_ll_gpio.h **** __STATIC_INLINE void LL_GPIO_SetPinMode(GPIO_TypeDef *GPIOx, uint32_t Pin, uint32_t Mode)
 269:Drivers/STM32F0xx_HAL_Driver/Inc/stm32f0xx_ll_gpio.h **** {
ARM GAS  C:\Users\bvv64\AppData\Local\Temp\ccg7jOW9.s 			page 7


 270:Drivers/STM32F0xx_HAL_Driver/Inc/stm32f0xx_ll_gpio.h ****   MODIFY_REG(GPIOx->MODER, ((Pin * Pin) * GPIO_MODER_MODER0), ((Pin * Pin) * Mode));
 271:Drivers/STM32F0xx_HAL_Driver/Inc/stm32f0xx_ll_gpio.h **** }
 272:Drivers/STM32F0xx_HAL_Driver/Inc/stm32f0xx_ll_gpio.h **** 
 273:Drivers/STM32F0xx_HAL_Driver/Inc/stm32f0xx_ll_gpio.h **** /**
 274:Drivers/STM32F0xx_HAL_Driver/Inc/stm32f0xx_ll_gpio.h ****   * @brief  Return gpio mode for a dedicated pin on dedicated port.
 275:Drivers/STM32F0xx_HAL_Driver/Inc/stm32f0xx_ll_gpio.h ****   * @note   I/O mode can be Input mode, General purpose output, Alternate function mode or Analog.
 276:Drivers/STM32F0xx_HAL_Driver/Inc/stm32f0xx_ll_gpio.h ****   * @note   Warning: only one pin can be passed as parameter.
 277:Drivers/STM32F0xx_HAL_Driver/Inc/stm32f0xx_ll_gpio.h ****   * @rmtoll MODER        MODEy         LL_GPIO_GetPinMode
 278:Drivers/STM32F0xx_HAL_Driver/Inc/stm32f0xx_ll_gpio.h ****   * @param  GPIOx GPIO Port
 279:Drivers/STM32F0xx_HAL_Driver/Inc/stm32f0xx_ll_gpio.h ****   * @param  Pin This parameter can be one of the following values:
 280:Drivers/STM32F0xx_HAL_Driver/Inc/stm32f0xx_ll_gpio.h ****   *         @arg @ref LL_GPIO_PIN_0
 281:Drivers/STM32F0xx_HAL_Driver/Inc/stm32f0xx_ll_gpio.h ****   *         @arg @ref LL_GPIO_PIN_1
 282:Drivers/STM32F0xx_HAL_Driver/Inc/stm32f0xx_ll_gpio.h ****   *         @arg @ref LL_GPIO_PIN_2
 283:Drivers/STM32F0xx_HAL_Driver/Inc/stm32f0xx_ll_gpio.h ****   *         @arg @ref LL_GPIO_PIN_3
 284:Drivers/STM32F0xx_HAL_Driver/Inc/stm32f0xx_ll_gpio.h ****   *         @arg @ref LL_GPIO_PIN_4
 285:Drivers/STM32F0xx_HAL_Driver/Inc/stm32f0xx_ll_gpio.h ****   *         @arg @ref LL_GPIO_PIN_5
 286:Drivers/STM32F0xx_HAL_Driver/Inc/stm32f0xx_ll_gpio.h ****   *         @arg @ref LL_GPIO_PIN_6
 287:Drivers/STM32F0xx_HAL_Driver/Inc/stm32f0xx_ll_gpio.h ****   *         @arg @ref LL_GPIO_PIN_7
 288:Drivers/STM32F0xx_HAL_Driver/Inc/stm32f0xx_ll_gpio.h ****   *         @arg @ref LL_GPIO_PIN_8
 289:Drivers/STM32F0xx_HAL_Driver/Inc/stm32f0xx_ll_gpio.h ****   *         @arg @ref LL_GPIO_PIN_9
 290:Drivers/STM32F0xx_HAL_Driver/Inc/stm32f0xx_ll_gpio.h ****   *         @arg @ref LL_GPIO_PIN_10
 291:Drivers/STM32F0xx_HAL_Driver/Inc/stm32f0xx_ll_gpio.h ****   *         @arg @ref LL_GPIO_PIN_11
 292:Drivers/STM32F0xx_HAL_Driver/Inc/stm32f0xx_ll_gpio.h ****   *         @arg @ref LL_GPIO_PIN_12
 293:Drivers/STM32F0xx_HAL_Driver/Inc/stm32f0xx_ll_gpio.h ****   *         @arg @ref LL_GPIO_PIN_13
 294:Drivers/STM32F0xx_HAL_Driver/Inc/stm32f0xx_ll_gpio.h ****   *         @arg @ref LL_GPIO_PIN_14
 295:Drivers/STM32F0xx_HAL_Driver/Inc/stm32f0xx_ll_gpio.h ****   *         @arg @ref LL_GPIO_PIN_15
 296:Drivers/STM32F0xx_HAL_Driver/Inc/stm32f0xx_ll_gpio.h ****   * @retval Returned value can be one of the following values:
 297:Drivers/STM32F0xx_HAL_Driver/Inc/stm32f0xx_ll_gpio.h ****   *         @arg @ref LL_GPIO_MODE_INPUT
 298:Drivers/STM32F0xx_HAL_Driver/Inc/stm32f0xx_ll_gpio.h ****   *         @arg @ref LL_GPIO_MODE_OUTPUT
 299:Drivers/STM32F0xx_HAL_Driver/Inc/stm32f0xx_ll_gpio.h ****   *         @arg @ref LL_GPIO_MODE_ALTERNATE
 300:Drivers/STM32F0xx_HAL_Driver/Inc/stm32f0xx_ll_gpio.h ****   *         @arg @ref LL_GPIO_MODE_ANALOG
 301:Drivers/STM32F0xx_HAL_Driver/Inc/stm32f0xx_ll_gpio.h ****   */
 302:Drivers/STM32F0xx_HAL_Driver/Inc/stm32f0xx_ll_gpio.h **** __STATIC_INLINE uint32_t LL_GPIO_GetPinMode(GPIO_TypeDef *GPIOx, uint32_t Pin)
 303:Drivers/STM32F0xx_HAL_Driver/Inc/stm32f0xx_ll_gpio.h **** {
 304:Drivers/STM32F0xx_HAL_Driver/Inc/stm32f0xx_ll_gpio.h ****   return (uint32_t)(READ_BIT(GPIOx->MODER, ((Pin * Pin) * GPIO_MODER_MODER0)) / (Pin * Pin));
 305:Drivers/STM32F0xx_HAL_Driver/Inc/stm32f0xx_ll_gpio.h **** }
 306:Drivers/STM32F0xx_HAL_Driver/Inc/stm32f0xx_ll_gpio.h **** 
 307:Drivers/STM32F0xx_HAL_Driver/Inc/stm32f0xx_ll_gpio.h **** /**
 308:Drivers/STM32F0xx_HAL_Driver/Inc/stm32f0xx_ll_gpio.h ****   * @brief  Configure gpio output type for several pins on dedicated port.
 309:Drivers/STM32F0xx_HAL_Driver/Inc/stm32f0xx_ll_gpio.h ****   * @note   Output type as to be set when gpio pin is in output or
 310:Drivers/STM32F0xx_HAL_Driver/Inc/stm32f0xx_ll_gpio.h ****   *         alternate modes. Possible type are Push-pull or Open-drain.
 311:Drivers/STM32F0xx_HAL_Driver/Inc/stm32f0xx_ll_gpio.h ****   * @rmtoll OTYPER       OTy           LL_GPIO_SetPinOutputType
 312:Drivers/STM32F0xx_HAL_Driver/Inc/stm32f0xx_ll_gpio.h ****   * @param  GPIOx GPIO Port
 313:Drivers/STM32F0xx_HAL_Driver/Inc/stm32f0xx_ll_gpio.h ****   * @param  PinMask This parameter can be a combination of the following values:
 314:Drivers/STM32F0xx_HAL_Driver/Inc/stm32f0xx_ll_gpio.h ****   *         @arg @ref LL_GPIO_PIN_0
 315:Drivers/STM32F0xx_HAL_Driver/Inc/stm32f0xx_ll_gpio.h ****   *         @arg @ref LL_GPIO_PIN_1
 316:Drivers/STM32F0xx_HAL_Driver/Inc/stm32f0xx_ll_gpio.h ****   *         @arg @ref LL_GPIO_PIN_2
 317:Drivers/STM32F0xx_HAL_Driver/Inc/stm32f0xx_ll_gpio.h ****   *         @arg @ref LL_GPIO_PIN_3
 318:Drivers/STM32F0xx_HAL_Driver/Inc/stm32f0xx_ll_gpio.h ****   *         @arg @ref LL_GPIO_PIN_4
 319:Drivers/STM32F0xx_HAL_Driver/Inc/stm32f0xx_ll_gpio.h ****   *         @arg @ref LL_GPIO_PIN_5
 320:Drivers/STM32F0xx_HAL_Driver/Inc/stm32f0xx_ll_gpio.h ****   *         @arg @ref LL_GPIO_PIN_6
 321:Drivers/STM32F0xx_HAL_Driver/Inc/stm32f0xx_ll_gpio.h ****   *         @arg @ref LL_GPIO_PIN_7
 322:Drivers/STM32F0xx_HAL_Driver/Inc/stm32f0xx_ll_gpio.h ****   *         @arg @ref LL_GPIO_PIN_8
 323:Drivers/STM32F0xx_HAL_Driver/Inc/stm32f0xx_ll_gpio.h ****   *         @arg @ref LL_GPIO_PIN_9
 324:Drivers/STM32F0xx_HAL_Driver/Inc/stm32f0xx_ll_gpio.h ****   *         @arg @ref LL_GPIO_PIN_10
 325:Drivers/STM32F0xx_HAL_Driver/Inc/stm32f0xx_ll_gpio.h ****   *         @arg @ref LL_GPIO_PIN_11
 326:Drivers/STM32F0xx_HAL_Driver/Inc/stm32f0xx_ll_gpio.h ****   *         @arg @ref LL_GPIO_PIN_12
ARM GAS  C:\Users\bvv64\AppData\Local\Temp\ccg7jOW9.s 			page 8


 327:Drivers/STM32F0xx_HAL_Driver/Inc/stm32f0xx_ll_gpio.h ****   *         @arg @ref LL_GPIO_PIN_13
 328:Drivers/STM32F0xx_HAL_Driver/Inc/stm32f0xx_ll_gpio.h ****   *         @arg @ref LL_GPIO_PIN_14
 329:Drivers/STM32F0xx_HAL_Driver/Inc/stm32f0xx_ll_gpio.h ****   *         @arg @ref LL_GPIO_PIN_15
 330:Drivers/STM32F0xx_HAL_Driver/Inc/stm32f0xx_ll_gpio.h ****   *         @arg @ref LL_GPIO_PIN_ALL
 331:Drivers/STM32F0xx_HAL_Driver/Inc/stm32f0xx_ll_gpio.h ****   * @param  OutputType This parameter can be one of the following values:
 332:Drivers/STM32F0xx_HAL_Driver/Inc/stm32f0xx_ll_gpio.h ****   *         @arg @ref LL_GPIO_OUTPUT_PUSHPULL
 333:Drivers/STM32F0xx_HAL_Driver/Inc/stm32f0xx_ll_gpio.h ****   *         @arg @ref LL_GPIO_OUTPUT_OPENDRAIN
 334:Drivers/STM32F0xx_HAL_Driver/Inc/stm32f0xx_ll_gpio.h ****   * @retval None
 335:Drivers/STM32F0xx_HAL_Driver/Inc/stm32f0xx_ll_gpio.h ****   */
 336:Drivers/STM32F0xx_HAL_Driver/Inc/stm32f0xx_ll_gpio.h **** __STATIC_INLINE void LL_GPIO_SetPinOutputType(GPIO_TypeDef *GPIOx, uint32_t PinMask, uint32_t Outpu
 337:Drivers/STM32F0xx_HAL_Driver/Inc/stm32f0xx_ll_gpio.h **** {
 338:Drivers/STM32F0xx_HAL_Driver/Inc/stm32f0xx_ll_gpio.h ****   MODIFY_REG(GPIOx->OTYPER, PinMask, (PinMask * OutputType));
 339:Drivers/STM32F0xx_HAL_Driver/Inc/stm32f0xx_ll_gpio.h **** }
 340:Drivers/STM32F0xx_HAL_Driver/Inc/stm32f0xx_ll_gpio.h **** 
 341:Drivers/STM32F0xx_HAL_Driver/Inc/stm32f0xx_ll_gpio.h **** /**
 342:Drivers/STM32F0xx_HAL_Driver/Inc/stm32f0xx_ll_gpio.h ****   * @brief  Return gpio output type for several pins on dedicated port.
 343:Drivers/STM32F0xx_HAL_Driver/Inc/stm32f0xx_ll_gpio.h ****   * @note   Output type as to be set when gpio pin is in output or
 344:Drivers/STM32F0xx_HAL_Driver/Inc/stm32f0xx_ll_gpio.h ****   *         alternate modes. Possible type are Push-pull or Open-drain.
 345:Drivers/STM32F0xx_HAL_Driver/Inc/stm32f0xx_ll_gpio.h ****   * @note   Warning: only one pin can be passed as parameter.
 346:Drivers/STM32F0xx_HAL_Driver/Inc/stm32f0xx_ll_gpio.h ****   * @rmtoll OTYPER       OTy           LL_GPIO_GetPinOutputType
 347:Drivers/STM32F0xx_HAL_Driver/Inc/stm32f0xx_ll_gpio.h ****   * @param  GPIOx GPIO Port
 348:Drivers/STM32F0xx_HAL_Driver/Inc/stm32f0xx_ll_gpio.h ****   * @param  Pin This parameter can be one of the following values:
 349:Drivers/STM32F0xx_HAL_Driver/Inc/stm32f0xx_ll_gpio.h ****   *         @arg @ref LL_GPIO_PIN_0
 350:Drivers/STM32F0xx_HAL_Driver/Inc/stm32f0xx_ll_gpio.h ****   *         @arg @ref LL_GPIO_PIN_1
 351:Drivers/STM32F0xx_HAL_Driver/Inc/stm32f0xx_ll_gpio.h ****   *         @arg @ref LL_GPIO_PIN_2
 352:Drivers/STM32F0xx_HAL_Driver/Inc/stm32f0xx_ll_gpio.h ****   *         @arg @ref LL_GPIO_PIN_3
 353:Drivers/STM32F0xx_HAL_Driver/Inc/stm32f0xx_ll_gpio.h ****   *         @arg @ref LL_GPIO_PIN_4
 354:Drivers/STM32F0xx_HAL_Driver/Inc/stm32f0xx_ll_gpio.h ****   *         @arg @ref LL_GPIO_PIN_5
 355:Drivers/STM32F0xx_HAL_Driver/Inc/stm32f0xx_ll_gpio.h ****   *         @arg @ref LL_GPIO_PIN_6
 356:Drivers/STM32F0xx_HAL_Driver/Inc/stm32f0xx_ll_gpio.h ****   *         @arg @ref LL_GPIO_PIN_7
 357:Drivers/STM32F0xx_HAL_Driver/Inc/stm32f0xx_ll_gpio.h ****   *         @arg @ref LL_GPIO_PIN_8
 358:Drivers/STM32F0xx_HAL_Driver/Inc/stm32f0xx_ll_gpio.h ****   *         @arg @ref LL_GPIO_PIN_9
 359:Drivers/STM32F0xx_HAL_Driver/Inc/stm32f0xx_ll_gpio.h ****   *         @arg @ref LL_GPIO_PIN_10
 360:Drivers/STM32F0xx_HAL_Driver/Inc/stm32f0xx_ll_gpio.h ****   *         @arg @ref LL_GPIO_PIN_11
 361:Drivers/STM32F0xx_HAL_Driver/Inc/stm32f0xx_ll_gpio.h ****   *         @arg @ref LL_GPIO_PIN_12
 362:Drivers/STM32F0xx_HAL_Driver/Inc/stm32f0xx_ll_gpio.h ****   *         @arg @ref LL_GPIO_PIN_13
 363:Drivers/STM32F0xx_HAL_Driver/Inc/stm32f0xx_ll_gpio.h ****   *         @arg @ref LL_GPIO_PIN_14
 364:Drivers/STM32F0xx_HAL_Driver/Inc/stm32f0xx_ll_gpio.h ****   *         @arg @ref LL_GPIO_PIN_15
 365:Drivers/STM32F0xx_HAL_Driver/Inc/stm32f0xx_ll_gpio.h ****   *         @arg @ref LL_GPIO_PIN_ALL
 366:Drivers/STM32F0xx_HAL_Driver/Inc/stm32f0xx_ll_gpio.h ****   * @retval Returned value can be one of the following values:
 367:Drivers/STM32F0xx_HAL_Driver/Inc/stm32f0xx_ll_gpio.h ****   *         @arg @ref LL_GPIO_OUTPUT_PUSHPULL
 368:Drivers/STM32F0xx_HAL_Driver/Inc/stm32f0xx_ll_gpio.h ****   *         @arg @ref LL_GPIO_OUTPUT_OPENDRAIN
 369:Drivers/STM32F0xx_HAL_Driver/Inc/stm32f0xx_ll_gpio.h ****   */
 370:Drivers/STM32F0xx_HAL_Driver/Inc/stm32f0xx_ll_gpio.h **** __STATIC_INLINE uint32_t LL_GPIO_GetPinOutputType(GPIO_TypeDef *GPIOx, uint32_t Pin)
 371:Drivers/STM32F0xx_HAL_Driver/Inc/stm32f0xx_ll_gpio.h **** {
 372:Drivers/STM32F0xx_HAL_Driver/Inc/stm32f0xx_ll_gpio.h ****   return (uint32_t)(READ_BIT(GPIOx->OTYPER, Pin) / Pin);
 373:Drivers/STM32F0xx_HAL_Driver/Inc/stm32f0xx_ll_gpio.h **** }
 374:Drivers/STM32F0xx_HAL_Driver/Inc/stm32f0xx_ll_gpio.h **** 
 375:Drivers/STM32F0xx_HAL_Driver/Inc/stm32f0xx_ll_gpio.h **** /**
 376:Drivers/STM32F0xx_HAL_Driver/Inc/stm32f0xx_ll_gpio.h ****   * @brief  Configure gpio speed for a dedicated pin on dedicated port.
 377:Drivers/STM32F0xx_HAL_Driver/Inc/stm32f0xx_ll_gpio.h ****   * @note   I/O speed can be Low, Medium, Fast or High speed.
 378:Drivers/STM32F0xx_HAL_Driver/Inc/stm32f0xx_ll_gpio.h ****   * @note   Warning: only one pin can be passed as parameter.
 379:Drivers/STM32F0xx_HAL_Driver/Inc/stm32f0xx_ll_gpio.h ****   * @note   Refer to datasheet for frequency specifications and the power
 380:Drivers/STM32F0xx_HAL_Driver/Inc/stm32f0xx_ll_gpio.h ****   *         supply and load conditions for each speed.
 381:Drivers/STM32F0xx_HAL_Driver/Inc/stm32f0xx_ll_gpio.h ****   * @rmtoll OSPEEDR      OSPEEDy       LL_GPIO_SetPinSpeed
 382:Drivers/STM32F0xx_HAL_Driver/Inc/stm32f0xx_ll_gpio.h ****   * @param  GPIOx GPIO Port
 383:Drivers/STM32F0xx_HAL_Driver/Inc/stm32f0xx_ll_gpio.h ****   * @param  Pin This parameter can be one of the following values:
ARM GAS  C:\Users\bvv64\AppData\Local\Temp\ccg7jOW9.s 			page 9


 384:Drivers/STM32F0xx_HAL_Driver/Inc/stm32f0xx_ll_gpio.h ****   *         @arg @ref LL_GPIO_PIN_0
 385:Drivers/STM32F0xx_HAL_Driver/Inc/stm32f0xx_ll_gpio.h ****   *         @arg @ref LL_GPIO_PIN_1
 386:Drivers/STM32F0xx_HAL_Driver/Inc/stm32f0xx_ll_gpio.h ****   *         @arg @ref LL_GPIO_PIN_2
 387:Drivers/STM32F0xx_HAL_Driver/Inc/stm32f0xx_ll_gpio.h ****   *         @arg @ref LL_GPIO_PIN_3
 388:Drivers/STM32F0xx_HAL_Driver/Inc/stm32f0xx_ll_gpio.h ****   *         @arg @ref LL_GPIO_PIN_4
 389:Drivers/STM32F0xx_HAL_Driver/Inc/stm32f0xx_ll_gpio.h ****   *         @arg @ref LL_GPIO_PIN_5
 390:Drivers/STM32F0xx_HAL_Driver/Inc/stm32f0xx_ll_gpio.h ****   *         @arg @ref LL_GPIO_PIN_6
 391:Drivers/STM32F0xx_HAL_Driver/Inc/stm32f0xx_ll_gpio.h ****   *         @arg @ref LL_GPIO_PIN_7
 392:Drivers/STM32F0xx_HAL_Driver/Inc/stm32f0xx_ll_gpio.h ****   *         @arg @ref LL_GPIO_PIN_8
 393:Drivers/STM32F0xx_HAL_Driver/Inc/stm32f0xx_ll_gpio.h ****   *         @arg @ref LL_GPIO_PIN_9
 394:Drivers/STM32F0xx_HAL_Driver/Inc/stm32f0xx_ll_gpio.h ****   *         @arg @ref LL_GPIO_PIN_10
 395:Drivers/STM32F0xx_HAL_Driver/Inc/stm32f0xx_ll_gpio.h ****   *         @arg @ref LL_GPIO_PIN_11
 396:Drivers/STM32F0xx_HAL_Driver/Inc/stm32f0xx_ll_gpio.h ****   *         @arg @ref LL_GPIO_PIN_12
 397:Drivers/STM32F0xx_HAL_Driver/Inc/stm32f0xx_ll_gpio.h ****   *         @arg @ref LL_GPIO_PIN_13
 398:Drivers/STM32F0xx_HAL_Driver/Inc/stm32f0xx_ll_gpio.h ****   *         @arg @ref LL_GPIO_PIN_14
 399:Drivers/STM32F0xx_HAL_Driver/Inc/stm32f0xx_ll_gpio.h ****   *         @arg @ref LL_GPIO_PIN_15
 400:Drivers/STM32F0xx_HAL_Driver/Inc/stm32f0xx_ll_gpio.h ****   * @param  Speed This parameter can be one of the following values:
 401:Drivers/STM32F0xx_HAL_Driver/Inc/stm32f0xx_ll_gpio.h ****   *         @arg @ref LL_GPIO_SPEED_FREQ_LOW
 402:Drivers/STM32F0xx_HAL_Driver/Inc/stm32f0xx_ll_gpio.h ****   *         @arg @ref LL_GPIO_SPEED_FREQ_MEDIUM
 403:Drivers/STM32F0xx_HAL_Driver/Inc/stm32f0xx_ll_gpio.h ****   *         @arg @ref LL_GPIO_SPEED_FREQ_HIGH
 404:Drivers/STM32F0xx_HAL_Driver/Inc/stm32f0xx_ll_gpio.h ****   * @retval None
 405:Drivers/STM32F0xx_HAL_Driver/Inc/stm32f0xx_ll_gpio.h ****   */
 406:Drivers/STM32F0xx_HAL_Driver/Inc/stm32f0xx_ll_gpio.h **** __STATIC_INLINE void LL_GPIO_SetPinSpeed(GPIO_TypeDef *GPIOx, uint32_t Pin, uint32_t  Speed)
 407:Drivers/STM32F0xx_HAL_Driver/Inc/stm32f0xx_ll_gpio.h **** {
 408:Drivers/STM32F0xx_HAL_Driver/Inc/stm32f0xx_ll_gpio.h ****   MODIFY_REG(GPIOx->OSPEEDR, ((Pin * Pin) * GPIO_OSPEEDR_OSPEEDR0), ((Pin * Pin) * Speed));
 409:Drivers/STM32F0xx_HAL_Driver/Inc/stm32f0xx_ll_gpio.h **** }
 410:Drivers/STM32F0xx_HAL_Driver/Inc/stm32f0xx_ll_gpio.h **** 
 411:Drivers/STM32F0xx_HAL_Driver/Inc/stm32f0xx_ll_gpio.h **** /**
 412:Drivers/STM32F0xx_HAL_Driver/Inc/stm32f0xx_ll_gpio.h ****   * @brief  Return gpio speed for a dedicated pin on dedicated port.
 413:Drivers/STM32F0xx_HAL_Driver/Inc/stm32f0xx_ll_gpio.h ****   * @note   I/O speed can be Low, Medium, Fast or High speed.
 414:Drivers/STM32F0xx_HAL_Driver/Inc/stm32f0xx_ll_gpio.h ****   * @note   Warning: only one pin can be passed as parameter.
 415:Drivers/STM32F0xx_HAL_Driver/Inc/stm32f0xx_ll_gpio.h ****   * @note   Refer to datasheet for frequency specifications and the power
 416:Drivers/STM32F0xx_HAL_Driver/Inc/stm32f0xx_ll_gpio.h ****   *         supply and load conditions for each speed.
 417:Drivers/STM32F0xx_HAL_Driver/Inc/stm32f0xx_ll_gpio.h ****   * @rmtoll OSPEEDR      OSPEEDy       LL_GPIO_GetPinSpeed
 418:Drivers/STM32F0xx_HAL_Driver/Inc/stm32f0xx_ll_gpio.h ****   * @param  GPIOx GPIO Port
 419:Drivers/STM32F0xx_HAL_Driver/Inc/stm32f0xx_ll_gpio.h ****   * @param  Pin This parameter can be one of the following values:
 420:Drivers/STM32F0xx_HAL_Driver/Inc/stm32f0xx_ll_gpio.h ****   *         @arg @ref LL_GPIO_PIN_0
 421:Drivers/STM32F0xx_HAL_Driver/Inc/stm32f0xx_ll_gpio.h ****   *         @arg @ref LL_GPIO_PIN_1
 422:Drivers/STM32F0xx_HAL_Driver/Inc/stm32f0xx_ll_gpio.h ****   *         @arg @ref LL_GPIO_PIN_2
 423:Drivers/STM32F0xx_HAL_Driver/Inc/stm32f0xx_ll_gpio.h ****   *         @arg @ref LL_GPIO_PIN_3
 424:Drivers/STM32F0xx_HAL_Driver/Inc/stm32f0xx_ll_gpio.h ****   *         @arg @ref LL_GPIO_PIN_4
 425:Drivers/STM32F0xx_HAL_Driver/Inc/stm32f0xx_ll_gpio.h ****   *         @arg @ref LL_GPIO_PIN_5
 426:Drivers/STM32F0xx_HAL_Driver/Inc/stm32f0xx_ll_gpio.h ****   *         @arg @ref LL_GPIO_PIN_6
 427:Drivers/STM32F0xx_HAL_Driver/Inc/stm32f0xx_ll_gpio.h ****   *         @arg @ref LL_GPIO_PIN_7
 428:Drivers/STM32F0xx_HAL_Driver/Inc/stm32f0xx_ll_gpio.h ****   *         @arg @ref LL_GPIO_PIN_8
 429:Drivers/STM32F0xx_HAL_Driver/Inc/stm32f0xx_ll_gpio.h ****   *         @arg @ref LL_GPIO_PIN_9
 430:Drivers/STM32F0xx_HAL_Driver/Inc/stm32f0xx_ll_gpio.h ****   *         @arg @ref LL_GPIO_PIN_10
 431:Drivers/STM32F0xx_HAL_Driver/Inc/stm32f0xx_ll_gpio.h ****   *         @arg @ref LL_GPIO_PIN_11
 432:Drivers/STM32F0xx_HAL_Driver/Inc/stm32f0xx_ll_gpio.h ****   *         @arg @ref LL_GPIO_PIN_12
 433:Drivers/STM32F0xx_HAL_Driver/Inc/stm32f0xx_ll_gpio.h ****   *         @arg @ref LL_GPIO_PIN_13
 434:Drivers/STM32F0xx_HAL_Driver/Inc/stm32f0xx_ll_gpio.h ****   *         @arg @ref LL_GPIO_PIN_14
 435:Drivers/STM32F0xx_HAL_Driver/Inc/stm32f0xx_ll_gpio.h ****   *         @arg @ref LL_GPIO_PIN_15
 436:Drivers/STM32F0xx_HAL_Driver/Inc/stm32f0xx_ll_gpio.h ****   * @retval Returned value can be one of the following values:
 437:Drivers/STM32F0xx_HAL_Driver/Inc/stm32f0xx_ll_gpio.h ****   *         @arg @ref LL_GPIO_SPEED_FREQ_LOW
 438:Drivers/STM32F0xx_HAL_Driver/Inc/stm32f0xx_ll_gpio.h ****   *         @arg @ref LL_GPIO_SPEED_FREQ_MEDIUM
 439:Drivers/STM32F0xx_HAL_Driver/Inc/stm32f0xx_ll_gpio.h ****   *         @arg @ref LL_GPIO_SPEED_FREQ_HIGH
 440:Drivers/STM32F0xx_HAL_Driver/Inc/stm32f0xx_ll_gpio.h ****   */
ARM GAS  C:\Users\bvv64\AppData\Local\Temp\ccg7jOW9.s 			page 10


 441:Drivers/STM32F0xx_HAL_Driver/Inc/stm32f0xx_ll_gpio.h **** __STATIC_INLINE uint32_t LL_GPIO_GetPinSpeed(GPIO_TypeDef *GPIOx, uint32_t Pin)
 442:Drivers/STM32F0xx_HAL_Driver/Inc/stm32f0xx_ll_gpio.h **** {
 443:Drivers/STM32F0xx_HAL_Driver/Inc/stm32f0xx_ll_gpio.h ****   return (uint32_t)(READ_BIT(GPIOx->OSPEEDR, ((Pin * Pin) * GPIO_OSPEEDR_OSPEEDR0)) / (Pin * Pin));
 444:Drivers/STM32F0xx_HAL_Driver/Inc/stm32f0xx_ll_gpio.h **** }
 445:Drivers/STM32F0xx_HAL_Driver/Inc/stm32f0xx_ll_gpio.h **** 
 446:Drivers/STM32F0xx_HAL_Driver/Inc/stm32f0xx_ll_gpio.h **** /**
 447:Drivers/STM32F0xx_HAL_Driver/Inc/stm32f0xx_ll_gpio.h ****   * @brief  Configure gpio pull-up or pull-down for a dedicated pin on a dedicated port.
 448:Drivers/STM32F0xx_HAL_Driver/Inc/stm32f0xx_ll_gpio.h ****   * @note   Warning: only one pin can be passed as parameter.
 449:Drivers/STM32F0xx_HAL_Driver/Inc/stm32f0xx_ll_gpio.h ****   * @rmtoll PUPDR        PUPDy         LL_GPIO_SetPinPull
 450:Drivers/STM32F0xx_HAL_Driver/Inc/stm32f0xx_ll_gpio.h ****   * @param  GPIOx GPIO Port
 451:Drivers/STM32F0xx_HAL_Driver/Inc/stm32f0xx_ll_gpio.h ****   * @param  Pin This parameter can be one of the following values:
 452:Drivers/STM32F0xx_HAL_Driver/Inc/stm32f0xx_ll_gpio.h ****   *         @arg @ref LL_GPIO_PIN_0
 453:Drivers/STM32F0xx_HAL_Driver/Inc/stm32f0xx_ll_gpio.h ****   *         @arg @ref LL_GPIO_PIN_1
 454:Drivers/STM32F0xx_HAL_Driver/Inc/stm32f0xx_ll_gpio.h ****   *         @arg @ref LL_GPIO_PIN_2
 455:Drivers/STM32F0xx_HAL_Driver/Inc/stm32f0xx_ll_gpio.h ****   *         @arg @ref LL_GPIO_PIN_3
 456:Drivers/STM32F0xx_HAL_Driver/Inc/stm32f0xx_ll_gpio.h ****   *         @arg @ref LL_GPIO_PIN_4
 457:Drivers/STM32F0xx_HAL_Driver/Inc/stm32f0xx_ll_gpio.h ****   *         @arg @ref LL_GPIO_PIN_5
 458:Drivers/STM32F0xx_HAL_Driver/Inc/stm32f0xx_ll_gpio.h ****   *         @arg @ref LL_GPIO_PIN_6
 459:Drivers/STM32F0xx_HAL_Driver/Inc/stm32f0xx_ll_gpio.h ****   *         @arg @ref LL_GPIO_PIN_7
 460:Drivers/STM32F0xx_HAL_Driver/Inc/stm32f0xx_ll_gpio.h ****   *         @arg @ref LL_GPIO_PIN_8
 461:Drivers/STM32F0xx_HAL_Driver/Inc/stm32f0xx_ll_gpio.h ****   *         @arg @ref LL_GPIO_PIN_9
 462:Drivers/STM32F0xx_HAL_Driver/Inc/stm32f0xx_ll_gpio.h ****   *         @arg @ref LL_GPIO_PIN_10
 463:Drivers/STM32F0xx_HAL_Driver/Inc/stm32f0xx_ll_gpio.h ****   *         @arg @ref LL_GPIO_PIN_11
 464:Drivers/STM32F0xx_HAL_Driver/Inc/stm32f0xx_ll_gpio.h ****   *         @arg @ref LL_GPIO_PIN_12
 465:Drivers/STM32F0xx_HAL_Driver/Inc/stm32f0xx_ll_gpio.h ****   *         @arg @ref LL_GPIO_PIN_13
 466:Drivers/STM32F0xx_HAL_Driver/Inc/stm32f0xx_ll_gpio.h ****   *         @arg @ref LL_GPIO_PIN_14
 467:Drivers/STM32F0xx_HAL_Driver/Inc/stm32f0xx_ll_gpio.h ****   *         @arg @ref LL_GPIO_PIN_15
 468:Drivers/STM32F0xx_HAL_Driver/Inc/stm32f0xx_ll_gpio.h ****   * @param  Pull This parameter can be one of the following values:
 469:Drivers/STM32F0xx_HAL_Driver/Inc/stm32f0xx_ll_gpio.h ****   *         @arg @ref LL_GPIO_PULL_NO
 470:Drivers/STM32F0xx_HAL_Driver/Inc/stm32f0xx_ll_gpio.h ****   *         @arg @ref LL_GPIO_PULL_UP
 471:Drivers/STM32F0xx_HAL_Driver/Inc/stm32f0xx_ll_gpio.h ****   *         @arg @ref LL_GPIO_PULL_DOWN
 472:Drivers/STM32F0xx_HAL_Driver/Inc/stm32f0xx_ll_gpio.h ****   * @retval None
 473:Drivers/STM32F0xx_HAL_Driver/Inc/stm32f0xx_ll_gpio.h ****   */
 474:Drivers/STM32F0xx_HAL_Driver/Inc/stm32f0xx_ll_gpio.h **** __STATIC_INLINE void LL_GPIO_SetPinPull(GPIO_TypeDef *GPIOx, uint32_t Pin, uint32_t Pull)
 475:Drivers/STM32F0xx_HAL_Driver/Inc/stm32f0xx_ll_gpio.h **** {
 476:Drivers/STM32F0xx_HAL_Driver/Inc/stm32f0xx_ll_gpio.h ****   MODIFY_REG(GPIOx->PUPDR, ((Pin * Pin) * GPIO_PUPDR_PUPDR0), ((Pin * Pin) * Pull));
 477:Drivers/STM32F0xx_HAL_Driver/Inc/stm32f0xx_ll_gpio.h **** }
 478:Drivers/STM32F0xx_HAL_Driver/Inc/stm32f0xx_ll_gpio.h **** 
 479:Drivers/STM32F0xx_HAL_Driver/Inc/stm32f0xx_ll_gpio.h **** /**
 480:Drivers/STM32F0xx_HAL_Driver/Inc/stm32f0xx_ll_gpio.h ****   * @brief  Return gpio pull-up or pull-down for a dedicated pin on a dedicated port
 481:Drivers/STM32F0xx_HAL_Driver/Inc/stm32f0xx_ll_gpio.h ****   * @note   Warning: only one pin can be passed as parameter.
 482:Drivers/STM32F0xx_HAL_Driver/Inc/stm32f0xx_ll_gpio.h ****   * @rmtoll PUPDR        PUPDy         LL_GPIO_GetPinPull
 483:Drivers/STM32F0xx_HAL_Driver/Inc/stm32f0xx_ll_gpio.h ****   * @param  GPIOx GPIO Port
 484:Drivers/STM32F0xx_HAL_Driver/Inc/stm32f0xx_ll_gpio.h ****   * @param  Pin This parameter can be one of the following values:
 485:Drivers/STM32F0xx_HAL_Driver/Inc/stm32f0xx_ll_gpio.h ****   *         @arg @ref LL_GPIO_PIN_0
 486:Drivers/STM32F0xx_HAL_Driver/Inc/stm32f0xx_ll_gpio.h ****   *         @arg @ref LL_GPIO_PIN_1
 487:Drivers/STM32F0xx_HAL_Driver/Inc/stm32f0xx_ll_gpio.h ****   *         @arg @ref LL_GPIO_PIN_2
 488:Drivers/STM32F0xx_HAL_Driver/Inc/stm32f0xx_ll_gpio.h ****   *         @arg @ref LL_GPIO_PIN_3
 489:Drivers/STM32F0xx_HAL_Driver/Inc/stm32f0xx_ll_gpio.h ****   *         @arg @ref LL_GPIO_PIN_4
 490:Drivers/STM32F0xx_HAL_Driver/Inc/stm32f0xx_ll_gpio.h ****   *         @arg @ref LL_GPIO_PIN_5
 491:Drivers/STM32F0xx_HAL_Driver/Inc/stm32f0xx_ll_gpio.h ****   *         @arg @ref LL_GPIO_PIN_6
 492:Drivers/STM32F0xx_HAL_Driver/Inc/stm32f0xx_ll_gpio.h ****   *         @arg @ref LL_GPIO_PIN_7
 493:Drivers/STM32F0xx_HAL_Driver/Inc/stm32f0xx_ll_gpio.h ****   *         @arg @ref LL_GPIO_PIN_8
 494:Drivers/STM32F0xx_HAL_Driver/Inc/stm32f0xx_ll_gpio.h ****   *         @arg @ref LL_GPIO_PIN_9
 495:Drivers/STM32F0xx_HAL_Driver/Inc/stm32f0xx_ll_gpio.h ****   *         @arg @ref LL_GPIO_PIN_10
 496:Drivers/STM32F0xx_HAL_Driver/Inc/stm32f0xx_ll_gpio.h ****   *         @arg @ref LL_GPIO_PIN_11
 497:Drivers/STM32F0xx_HAL_Driver/Inc/stm32f0xx_ll_gpio.h ****   *         @arg @ref LL_GPIO_PIN_12
ARM GAS  C:\Users\bvv64\AppData\Local\Temp\ccg7jOW9.s 			page 11


 498:Drivers/STM32F0xx_HAL_Driver/Inc/stm32f0xx_ll_gpio.h ****   *         @arg @ref LL_GPIO_PIN_13
 499:Drivers/STM32F0xx_HAL_Driver/Inc/stm32f0xx_ll_gpio.h ****   *         @arg @ref LL_GPIO_PIN_14
 500:Drivers/STM32F0xx_HAL_Driver/Inc/stm32f0xx_ll_gpio.h ****   *         @arg @ref LL_GPIO_PIN_15
 501:Drivers/STM32F0xx_HAL_Driver/Inc/stm32f0xx_ll_gpio.h ****   * @retval Returned value can be one of the following values:
 502:Drivers/STM32F0xx_HAL_Driver/Inc/stm32f0xx_ll_gpio.h ****   *         @arg @ref LL_GPIO_PULL_NO
 503:Drivers/STM32F0xx_HAL_Driver/Inc/stm32f0xx_ll_gpio.h ****   *         @arg @ref LL_GPIO_PULL_UP
 504:Drivers/STM32F0xx_HAL_Driver/Inc/stm32f0xx_ll_gpio.h ****   *         @arg @ref LL_GPIO_PULL_DOWN
 505:Drivers/STM32F0xx_HAL_Driver/Inc/stm32f0xx_ll_gpio.h ****   */
 506:Drivers/STM32F0xx_HAL_Driver/Inc/stm32f0xx_ll_gpio.h **** __STATIC_INLINE uint32_t LL_GPIO_GetPinPull(GPIO_TypeDef *GPIOx, uint32_t Pin)
 507:Drivers/STM32F0xx_HAL_Driver/Inc/stm32f0xx_ll_gpio.h **** {
 508:Drivers/STM32F0xx_HAL_Driver/Inc/stm32f0xx_ll_gpio.h ****   return (uint32_t)(READ_BIT(GPIOx->PUPDR, ((Pin * Pin) * GPIO_PUPDR_PUPDR0)) / (Pin * Pin));
 509:Drivers/STM32F0xx_HAL_Driver/Inc/stm32f0xx_ll_gpio.h **** }
 510:Drivers/STM32F0xx_HAL_Driver/Inc/stm32f0xx_ll_gpio.h **** 
 511:Drivers/STM32F0xx_HAL_Driver/Inc/stm32f0xx_ll_gpio.h **** /**
 512:Drivers/STM32F0xx_HAL_Driver/Inc/stm32f0xx_ll_gpio.h ****   * @brief  Configure gpio alternate function of a dedicated pin from 0 to 7 for a dedicated port.
 513:Drivers/STM32F0xx_HAL_Driver/Inc/stm32f0xx_ll_gpio.h ****   * @note   Possible values are from AF0 to AF7 depending on target.
 514:Drivers/STM32F0xx_HAL_Driver/Inc/stm32f0xx_ll_gpio.h ****   * @note   Warning: only one pin can be passed as parameter.
 515:Drivers/STM32F0xx_HAL_Driver/Inc/stm32f0xx_ll_gpio.h ****   * @rmtoll AFRL         AFSELy        LL_GPIO_SetAFPin_0_7
 516:Drivers/STM32F0xx_HAL_Driver/Inc/stm32f0xx_ll_gpio.h ****   * @param  GPIOx GPIO Port
 517:Drivers/STM32F0xx_HAL_Driver/Inc/stm32f0xx_ll_gpio.h ****   * @param  Pin This parameter can be one of the following values:
 518:Drivers/STM32F0xx_HAL_Driver/Inc/stm32f0xx_ll_gpio.h ****   *         @arg @ref LL_GPIO_PIN_0
 519:Drivers/STM32F0xx_HAL_Driver/Inc/stm32f0xx_ll_gpio.h ****   *         @arg @ref LL_GPIO_PIN_1
 520:Drivers/STM32F0xx_HAL_Driver/Inc/stm32f0xx_ll_gpio.h ****   *         @arg @ref LL_GPIO_PIN_2
 521:Drivers/STM32F0xx_HAL_Driver/Inc/stm32f0xx_ll_gpio.h ****   *         @arg @ref LL_GPIO_PIN_3
 522:Drivers/STM32F0xx_HAL_Driver/Inc/stm32f0xx_ll_gpio.h ****   *         @arg @ref LL_GPIO_PIN_4
 523:Drivers/STM32F0xx_HAL_Driver/Inc/stm32f0xx_ll_gpio.h ****   *         @arg @ref LL_GPIO_PIN_5
 524:Drivers/STM32F0xx_HAL_Driver/Inc/stm32f0xx_ll_gpio.h ****   *         @arg @ref LL_GPIO_PIN_6
 525:Drivers/STM32F0xx_HAL_Driver/Inc/stm32f0xx_ll_gpio.h ****   *         @arg @ref LL_GPIO_PIN_7
 526:Drivers/STM32F0xx_HAL_Driver/Inc/stm32f0xx_ll_gpio.h ****   * @param  Alternate This parameter can be one of the following values:
 527:Drivers/STM32F0xx_HAL_Driver/Inc/stm32f0xx_ll_gpio.h ****   *         @arg @ref LL_GPIO_AF_0
 528:Drivers/STM32F0xx_HAL_Driver/Inc/stm32f0xx_ll_gpio.h ****   *         @arg @ref LL_GPIO_AF_1
 529:Drivers/STM32F0xx_HAL_Driver/Inc/stm32f0xx_ll_gpio.h ****   *         @arg @ref LL_GPIO_AF_2
 530:Drivers/STM32F0xx_HAL_Driver/Inc/stm32f0xx_ll_gpio.h ****   *         @arg @ref LL_GPIO_AF_3
 531:Drivers/STM32F0xx_HAL_Driver/Inc/stm32f0xx_ll_gpio.h ****   *         @arg @ref LL_GPIO_AF_4
 532:Drivers/STM32F0xx_HAL_Driver/Inc/stm32f0xx_ll_gpio.h ****   *         @arg @ref LL_GPIO_AF_5
 533:Drivers/STM32F0xx_HAL_Driver/Inc/stm32f0xx_ll_gpio.h ****   *         @arg @ref LL_GPIO_AF_6
 534:Drivers/STM32F0xx_HAL_Driver/Inc/stm32f0xx_ll_gpio.h ****   *         @arg @ref LL_GPIO_AF_7
 535:Drivers/STM32F0xx_HAL_Driver/Inc/stm32f0xx_ll_gpio.h ****   * @retval None
 536:Drivers/STM32F0xx_HAL_Driver/Inc/stm32f0xx_ll_gpio.h ****   */
 537:Drivers/STM32F0xx_HAL_Driver/Inc/stm32f0xx_ll_gpio.h **** __STATIC_INLINE void LL_GPIO_SetAFPin_0_7(GPIO_TypeDef *GPIOx, uint32_t Pin, uint32_t Alternate)
 538:Drivers/STM32F0xx_HAL_Driver/Inc/stm32f0xx_ll_gpio.h **** {
 539:Drivers/STM32F0xx_HAL_Driver/Inc/stm32f0xx_ll_gpio.h ****   MODIFY_REG(GPIOx->AFR[0], ((((Pin * Pin) * Pin) * Pin) * GPIO_AFRL_AFSEL0),
 540:Drivers/STM32F0xx_HAL_Driver/Inc/stm32f0xx_ll_gpio.h ****              ((((Pin * Pin) * Pin) * Pin) * Alternate));
 541:Drivers/STM32F0xx_HAL_Driver/Inc/stm32f0xx_ll_gpio.h **** }
 542:Drivers/STM32F0xx_HAL_Driver/Inc/stm32f0xx_ll_gpio.h **** 
 543:Drivers/STM32F0xx_HAL_Driver/Inc/stm32f0xx_ll_gpio.h **** /**
 544:Drivers/STM32F0xx_HAL_Driver/Inc/stm32f0xx_ll_gpio.h ****   * @brief  Return gpio alternate function of a dedicated pin from 0 to 7 for a dedicated port.
 545:Drivers/STM32F0xx_HAL_Driver/Inc/stm32f0xx_ll_gpio.h ****   * @rmtoll AFRL         AFSELy        LL_GPIO_GetAFPin_0_7
 546:Drivers/STM32F0xx_HAL_Driver/Inc/stm32f0xx_ll_gpio.h ****   * @param  GPIOx GPIO Port
 547:Drivers/STM32F0xx_HAL_Driver/Inc/stm32f0xx_ll_gpio.h ****   * @param  Pin This parameter can be one of the following values:
 548:Drivers/STM32F0xx_HAL_Driver/Inc/stm32f0xx_ll_gpio.h ****   *         @arg @ref LL_GPIO_PIN_0
 549:Drivers/STM32F0xx_HAL_Driver/Inc/stm32f0xx_ll_gpio.h ****   *         @arg @ref LL_GPIO_PIN_1
 550:Drivers/STM32F0xx_HAL_Driver/Inc/stm32f0xx_ll_gpio.h ****   *         @arg @ref LL_GPIO_PIN_2
 551:Drivers/STM32F0xx_HAL_Driver/Inc/stm32f0xx_ll_gpio.h ****   *         @arg @ref LL_GPIO_PIN_3
 552:Drivers/STM32F0xx_HAL_Driver/Inc/stm32f0xx_ll_gpio.h ****   *         @arg @ref LL_GPIO_PIN_4
 553:Drivers/STM32F0xx_HAL_Driver/Inc/stm32f0xx_ll_gpio.h ****   *         @arg @ref LL_GPIO_PIN_5
 554:Drivers/STM32F0xx_HAL_Driver/Inc/stm32f0xx_ll_gpio.h ****   *         @arg @ref LL_GPIO_PIN_6
ARM GAS  C:\Users\bvv64\AppData\Local\Temp\ccg7jOW9.s 			page 12


 555:Drivers/STM32F0xx_HAL_Driver/Inc/stm32f0xx_ll_gpio.h ****   *         @arg @ref LL_GPIO_PIN_7
 556:Drivers/STM32F0xx_HAL_Driver/Inc/stm32f0xx_ll_gpio.h ****   * @retval Returned value can be one of the following values:
 557:Drivers/STM32F0xx_HAL_Driver/Inc/stm32f0xx_ll_gpio.h ****   *         @arg @ref LL_GPIO_AF_0
 558:Drivers/STM32F0xx_HAL_Driver/Inc/stm32f0xx_ll_gpio.h ****   *         @arg @ref LL_GPIO_AF_1
 559:Drivers/STM32F0xx_HAL_Driver/Inc/stm32f0xx_ll_gpio.h ****   *         @arg @ref LL_GPIO_AF_2
 560:Drivers/STM32F0xx_HAL_Driver/Inc/stm32f0xx_ll_gpio.h ****   *         @arg @ref LL_GPIO_AF_3
 561:Drivers/STM32F0xx_HAL_Driver/Inc/stm32f0xx_ll_gpio.h ****   *         @arg @ref LL_GPIO_AF_4
 562:Drivers/STM32F0xx_HAL_Driver/Inc/stm32f0xx_ll_gpio.h ****   *         @arg @ref LL_GPIO_AF_5
 563:Drivers/STM32F0xx_HAL_Driver/Inc/stm32f0xx_ll_gpio.h ****   *         @arg @ref LL_GPIO_AF_6
 564:Drivers/STM32F0xx_HAL_Driver/Inc/stm32f0xx_ll_gpio.h ****   *         @arg @ref LL_GPIO_AF_7
 565:Drivers/STM32F0xx_HAL_Driver/Inc/stm32f0xx_ll_gpio.h ****   */
 566:Drivers/STM32F0xx_HAL_Driver/Inc/stm32f0xx_ll_gpio.h **** __STATIC_INLINE uint32_t LL_GPIO_GetAFPin_0_7(GPIO_TypeDef *GPIOx, uint32_t Pin)
 567:Drivers/STM32F0xx_HAL_Driver/Inc/stm32f0xx_ll_gpio.h **** {
 568:Drivers/STM32F0xx_HAL_Driver/Inc/stm32f0xx_ll_gpio.h ****   return (uint32_t)(READ_BIT(GPIOx->AFR[0],
 569:Drivers/STM32F0xx_HAL_Driver/Inc/stm32f0xx_ll_gpio.h ****                              ((((Pin * Pin) * Pin) * Pin) * GPIO_AFRL_AFSEL0)) / (((Pin * Pin) * Pi
 570:Drivers/STM32F0xx_HAL_Driver/Inc/stm32f0xx_ll_gpio.h **** }
 571:Drivers/STM32F0xx_HAL_Driver/Inc/stm32f0xx_ll_gpio.h **** 
 572:Drivers/STM32F0xx_HAL_Driver/Inc/stm32f0xx_ll_gpio.h **** /**
 573:Drivers/STM32F0xx_HAL_Driver/Inc/stm32f0xx_ll_gpio.h ****   * @brief  Configure gpio alternate function of a dedicated pin from 8 to 15 for a dedicated port.
 574:Drivers/STM32F0xx_HAL_Driver/Inc/stm32f0xx_ll_gpio.h ****   * @note   Possible values are from AF0 to AF7 depending on target.
 575:Drivers/STM32F0xx_HAL_Driver/Inc/stm32f0xx_ll_gpio.h ****   * @note   Warning: only one pin can be passed as parameter.
 576:Drivers/STM32F0xx_HAL_Driver/Inc/stm32f0xx_ll_gpio.h ****   * @rmtoll AFRH         AFSELy        LL_GPIO_SetAFPin_8_15
 577:Drivers/STM32F0xx_HAL_Driver/Inc/stm32f0xx_ll_gpio.h ****   * @param  GPIOx GPIO Port
 578:Drivers/STM32F0xx_HAL_Driver/Inc/stm32f0xx_ll_gpio.h ****   * @param  Pin This parameter can be one of the following values:
 579:Drivers/STM32F0xx_HAL_Driver/Inc/stm32f0xx_ll_gpio.h ****   *         @arg @ref LL_GPIO_PIN_8
 580:Drivers/STM32F0xx_HAL_Driver/Inc/stm32f0xx_ll_gpio.h ****   *         @arg @ref LL_GPIO_PIN_9
 581:Drivers/STM32F0xx_HAL_Driver/Inc/stm32f0xx_ll_gpio.h ****   *         @arg @ref LL_GPIO_PIN_10
 582:Drivers/STM32F0xx_HAL_Driver/Inc/stm32f0xx_ll_gpio.h ****   *         @arg @ref LL_GPIO_PIN_11
 583:Drivers/STM32F0xx_HAL_Driver/Inc/stm32f0xx_ll_gpio.h ****   *         @arg @ref LL_GPIO_PIN_12
 584:Drivers/STM32F0xx_HAL_Driver/Inc/stm32f0xx_ll_gpio.h ****   *         @arg @ref LL_GPIO_PIN_13
 585:Drivers/STM32F0xx_HAL_Driver/Inc/stm32f0xx_ll_gpio.h ****   *         @arg @ref LL_GPIO_PIN_14
 586:Drivers/STM32F0xx_HAL_Driver/Inc/stm32f0xx_ll_gpio.h ****   *         @arg @ref LL_GPIO_PIN_15
 587:Drivers/STM32F0xx_HAL_Driver/Inc/stm32f0xx_ll_gpio.h ****   * @param  Alternate This parameter can be one of the following values:
 588:Drivers/STM32F0xx_HAL_Driver/Inc/stm32f0xx_ll_gpio.h ****   *         @arg @ref LL_GPIO_AF_0
 589:Drivers/STM32F0xx_HAL_Driver/Inc/stm32f0xx_ll_gpio.h ****   *         @arg @ref LL_GPIO_AF_1
 590:Drivers/STM32F0xx_HAL_Driver/Inc/stm32f0xx_ll_gpio.h ****   *         @arg @ref LL_GPIO_AF_2
 591:Drivers/STM32F0xx_HAL_Driver/Inc/stm32f0xx_ll_gpio.h ****   *         @arg @ref LL_GPIO_AF_3
 592:Drivers/STM32F0xx_HAL_Driver/Inc/stm32f0xx_ll_gpio.h ****   *         @arg @ref LL_GPIO_AF_4
 593:Drivers/STM32F0xx_HAL_Driver/Inc/stm32f0xx_ll_gpio.h ****   *         @arg @ref LL_GPIO_AF_5
 594:Drivers/STM32F0xx_HAL_Driver/Inc/stm32f0xx_ll_gpio.h ****   *         @arg @ref LL_GPIO_AF_6
 595:Drivers/STM32F0xx_HAL_Driver/Inc/stm32f0xx_ll_gpio.h ****   *         @arg @ref LL_GPIO_AF_7
 596:Drivers/STM32F0xx_HAL_Driver/Inc/stm32f0xx_ll_gpio.h ****   * @retval None
 597:Drivers/STM32F0xx_HAL_Driver/Inc/stm32f0xx_ll_gpio.h ****   */
 598:Drivers/STM32F0xx_HAL_Driver/Inc/stm32f0xx_ll_gpio.h **** __STATIC_INLINE void LL_GPIO_SetAFPin_8_15(GPIO_TypeDef *GPIOx, uint32_t Pin, uint32_t Alternate)
 599:Drivers/STM32F0xx_HAL_Driver/Inc/stm32f0xx_ll_gpio.h **** {
 600:Drivers/STM32F0xx_HAL_Driver/Inc/stm32f0xx_ll_gpio.h ****   MODIFY_REG(GPIOx->AFR[1], (((((Pin >> 8U) * (Pin >> 8U)) * (Pin >> 8U)) * (Pin >> 8U)) * GPIO_AFR
 601:Drivers/STM32F0xx_HAL_Driver/Inc/stm32f0xx_ll_gpio.h ****              (((((Pin >> 8U) * (Pin >> 8U)) * (Pin >> 8U)) * (Pin >> 8U)) * Alternate));
 602:Drivers/STM32F0xx_HAL_Driver/Inc/stm32f0xx_ll_gpio.h **** }
 603:Drivers/STM32F0xx_HAL_Driver/Inc/stm32f0xx_ll_gpio.h **** 
 604:Drivers/STM32F0xx_HAL_Driver/Inc/stm32f0xx_ll_gpio.h **** /**
 605:Drivers/STM32F0xx_HAL_Driver/Inc/stm32f0xx_ll_gpio.h ****   * @brief  Return gpio alternate function of a dedicated pin from 8 to 15 for a dedicated port.
 606:Drivers/STM32F0xx_HAL_Driver/Inc/stm32f0xx_ll_gpio.h ****   * @note   Possible values are from AF0 to AF7 depending on target.
 607:Drivers/STM32F0xx_HAL_Driver/Inc/stm32f0xx_ll_gpio.h ****   * @rmtoll AFRH         AFSELy        LL_GPIO_GetAFPin_8_15
 608:Drivers/STM32F0xx_HAL_Driver/Inc/stm32f0xx_ll_gpio.h ****   * @param  GPIOx GPIO Port
 609:Drivers/STM32F0xx_HAL_Driver/Inc/stm32f0xx_ll_gpio.h ****   * @param  Pin This parameter can be one of the following values:
 610:Drivers/STM32F0xx_HAL_Driver/Inc/stm32f0xx_ll_gpio.h ****   *         @arg @ref LL_GPIO_PIN_8
 611:Drivers/STM32F0xx_HAL_Driver/Inc/stm32f0xx_ll_gpio.h ****   *         @arg @ref LL_GPIO_PIN_9
ARM GAS  C:\Users\bvv64\AppData\Local\Temp\ccg7jOW9.s 			page 13


 612:Drivers/STM32F0xx_HAL_Driver/Inc/stm32f0xx_ll_gpio.h ****   *         @arg @ref LL_GPIO_PIN_10
 613:Drivers/STM32F0xx_HAL_Driver/Inc/stm32f0xx_ll_gpio.h ****   *         @arg @ref LL_GPIO_PIN_11
 614:Drivers/STM32F0xx_HAL_Driver/Inc/stm32f0xx_ll_gpio.h ****   *         @arg @ref LL_GPIO_PIN_12
 615:Drivers/STM32F0xx_HAL_Driver/Inc/stm32f0xx_ll_gpio.h ****   *         @arg @ref LL_GPIO_PIN_13
 616:Drivers/STM32F0xx_HAL_Driver/Inc/stm32f0xx_ll_gpio.h ****   *         @arg @ref LL_GPIO_PIN_14
 617:Drivers/STM32F0xx_HAL_Driver/Inc/stm32f0xx_ll_gpio.h ****   *         @arg @ref LL_GPIO_PIN_15
 618:Drivers/STM32F0xx_HAL_Driver/Inc/stm32f0xx_ll_gpio.h ****   * @retval Returned value can be one of the following values:
 619:Drivers/STM32F0xx_HAL_Driver/Inc/stm32f0xx_ll_gpio.h ****   *         @arg @ref LL_GPIO_AF_0
 620:Drivers/STM32F0xx_HAL_Driver/Inc/stm32f0xx_ll_gpio.h ****   *         @arg @ref LL_GPIO_AF_1
 621:Drivers/STM32F0xx_HAL_Driver/Inc/stm32f0xx_ll_gpio.h ****   *         @arg @ref LL_GPIO_AF_2
 622:Drivers/STM32F0xx_HAL_Driver/Inc/stm32f0xx_ll_gpio.h ****   *         @arg @ref LL_GPIO_AF_3
 623:Drivers/STM32F0xx_HAL_Driver/Inc/stm32f0xx_ll_gpio.h ****   *         @arg @ref LL_GPIO_AF_4
 624:Drivers/STM32F0xx_HAL_Driver/Inc/stm32f0xx_ll_gpio.h ****   *         @arg @ref LL_GPIO_AF_5
 625:Drivers/STM32F0xx_HAL_Driver/Inc/stm32f0xx_ll_gpio.h ****   *         @arg @ref LL_GPIO_AF_6
 626:Drivers/STM32F0xx_HAL_Driver/Inc/stm32f0xx_ll_gpio.h ****   *         @arg @ref LL_GPIO_AF_7
 627:Drivers/STM32F0xx_HAL_Driver/Inc/stm32f0xx_ll_gpio.h ****   */
 628:Drivers/STM32F0xx_HAL_Driver/Inc/stm32f0xx_ll_gpio.h **** __STATIC_INLINE uint32_t LL_GPIO_GetAFPin_8_15(GPIO_TypeDef *GPIOx, uint32_t Pin)
 629:Drivers/STM32F0xx_HAL_Driver/Inc/stm32f0xx_ll_gpio.h **** {
 630:Drivers/STM32F0xx_HAL_Driver/Inc/stm32f0xx_ll_gpio.h ****   return (uint32_t)(READ_BIT(GPIOx->AFR[1],
 631:Drivers/STM32F0xx_HAL_Driver/Inc/stm32f0xx_ll_gpio.h ****                              (((((Pin >> 8U) * (Pin >> 8U)) * (Pin >> 8U)) * (Pin >> 8U)) * GPIO_AF
 632:Drivers/STM32F0xx_HAL_Driver/Inc/stm32f0xx_ll_gpio.h ****                                  (Pin >> 8U)) * (Pin >> 8U)) * (Pin >> 8U)));
 633:Drivers/STM32F0xx_HAL_Driver/Inc/stm32f0xx_ll_gpio.h **** }
 634:Drivers/STM32F0xx_HAL_Driver/Inc/stm32f0xx_ll_gpio.h **** 
 635:Drivers/STM32F0xx_HAL_Driver/Inc/stm32f0xx_ll_gpio.h **** 
 636:Drivers/STM32F0xx_HAL_Driver/Inc/stm32f0xx_ll_gpio.h **** /**
 637:Drivers/STM32F0xx_HAL_Driver/Inc/stm32f0xx_ll_gpio.h ****   * @brief  Lock configuration of several pins for a dedicated port.
 638:Drivers/STM32F0xx_HAL_Driver/Inc/stm32f0xx_ll_gpio.h ****   * @note   When the lock sequence has been applied on a port bit, the
 639:Drivers/STM32F0xx_HAL_Driver/Inc/stm32f0xx_ll_gpio.h ****   *         value of this port bit can no longer be modified until the
 640:Drivers/STM32F0xx_HAL_Driver/Inc/stm32f0xx_ll_gpio.h ****   *         next reset.
 641:Drivers/STM32F0xx_HAL_Driver/Inc/stm32f0xx_ll_gpio.h ****   * @note   Each lock bit freezes a specific configuration register
 642:Drivers/STM32F0xx_HAL_Driver/Inc/stm32f0xx_ll_gpio.h ****   *         (control and alternate function registers).
 643:Drivers/STM32F0xx_HAL_Driver/Inc/stm32f0xx_ll_gpio.h ****   * @rmtoll LCKR         LCKK          LL_GPIO_LockPin
 644:Drivers/STM32F0xx_HAL_Driver/Inc/stm32f0xx_ll_gpio.h ****   * @param  GPIOx GPIO Port
 645:Drivers/STM32F0xx_HAL_Driver/Inc/stm32f0xx_ll_gpio.h ****   * @param  PinMask This parameter can be a combination of the following values:
 646:Drivers/STM32F0xx_HAL_Driver/Inc/stm32f0xx_ll_gpio.h ****   *         @arg @ref LL_GPIO_PIN_0
 647:Drivers/STM32F0xx_HAL_Driver/Inc/stm32f0xx_ll_gpio.h ****   *         @arg @ref LL_GPIO_PIN_1
 648:Drivers/STM32F0xx_HAL_Driver/Inc/stm32f0xx_ll_gpio.h ****   *         @arg @ref LL_GPIO_PIN_2
 649:Drivers/STM32F0xx_HAL_Driver/Inc/stm32f0xx_ll_gpio.h ****   *         @arg @ref LL_GPIO_PIN_3
 650:Drivers/STM32F0xx_HAL_Driver/Inc/stm32f0xx_ll_gpio.h ****   *         @arg @ref LL_GPIO_PIN_4
 651:Drivers/STM32F0xx_HAL_Driver/Inc/stm32f0xx_ll_gpio.h ****   *         @arg @ref LL_GPIO_PIN_5
 652:Drivers/STM32F0xx_HAL_Driver/Inc/stm32f0xx_ll_gpio.h ****   *         @arg @ref LL_GPIO_PIN_6
 653:Drivers/STM32F0xx_HAL_Driver/Inc/stm32f0xx_ll_gpio.h ****   *         @arg @ref LL_GPIO_PIN_7
 654:Drivers/STM32F0xx_HAL_Driver/Inc/stm32f0xx_ll_gpio.h ****   *         @arg @ref LL_GPIO_PIN_8
 655:Drivers/STM32F0xx_HAL_Driver/Inc/stm32f0xx_ll_gpio.h ****   *         @arg @ref LL_GPIO_PIN_9
 656:Drivers/STM32F0xx_HAL_Driver/Inc/stm32f0xx_ll_gpio.h ****   *         @arg @ref LL_GPIO_PIN_10
 657:Drivers/STM32F0xx_HAL_Driver/Inc/stm32f0xx_ll_gpio.h ****   *         @arg @ref LL_GPIO_PIN_11
 658:Drivers/STM32F0xx_HAL_Driver/Inc/stm32f0xx_ll_gpio.h ****   *         @arg @ref LL_GPIO_PIN_12
 659:Drivers/STM32F0xx_HAL_Driver/Inc/stm32f0xx_ll_gpio.h ****   *         @arg @ref LL_GPIO_PIN_13
 660:Drivers/STM32F0xx_HAL_Driver/Inc/stm32f0xx_ll_gpio.h ****   *         @arg @ref LL_GPIO_PIN_14
 661:Drivers/STM32F0xx_HAL_Driver/Inc/stm32f0xx_ll_gpio.h ****   *         @arg @ref LL_GPIO_PIN_15
 662:Drivers/STM32F0xx_HAL_Driver/Inc/stm32f0xx_ll_gpio.h ****   *         @arg @ref LL_GPIO_PIN_ALL
 663:Drivers/STM32F0xx_HAL_Driver/Inc/stm32f0xx_ll_gpio.h ****   * @retval None
 664:Drivers/STM32F0xx_HAL_Driver/Inc/stm32f0xx_ll_gpio.h ****   */
 665:Drivers/STM32F0xx_HAL_Driver/Inc/stm32f0xx_ll_gpio.h **** __STATIC_INLINE void LL_GPIO_LockPin(GPIO_TypeDef *GPIOx, uint32_t PinMask)
 666:Drivers/STM32F0xx_HAL_Driver/Inc/stm32f0xx_ll_gpio.h **** {
 667:Drivers/STM32F0xx_HAL_Driver/Inc/stm32f0xx_ll_gpio.h ****   __IO uint32_t temp;
 668:Drivers/STM32F0xx_HAL_Driver/Inc/stm32f0xx_ll_gpio.h ****   WRITE_REG(GPIOx->LCKR, GPIO_LCKR_LCKK | PinMask);
ARM GAS  C:\Users\bvv64\AppData\Local\Temp\ccg7jOW9.s 			page 14


 669:Drivers/STM32F0xx_HAL_Driver/Inc/stm32f0xx_ll_gpio.h ****   WRITE_REG(GPIOx->LCKR, PinMask);
 670:Drivers/STM32F0xx_HAL_Driver/Inc/stm32f0xx_ll_gpio.h ****   WRITE_REG(GPIOx->LCKR, GPIO_LCKR_LCKK | PinMask);
 671:Drivers/STM32F0xx_HAL_Driver/Inc/stm32f0xx_ll_gpio.h ****   temp = READ_REG(GPIOx->LCKR);
 672:Drivers/STM32F0xx_HAL_Driver/Inc/stm32f0xx_ll_gpio.h ****   (void) temp;
 673:Drivers/STM32F0xx_HAL_Driver/Inc/stm32f0xx_ll_gpio.h **** }
 674:Drivers/STM32F0xx_HAL_Driver/Inc/stm32f0xx_ll_gpio.h **** 
 675:Drivers/STM32F0xx_HAL_Driver/Inc/stm32f0xx_ll_gpio.h **** /**
 676:Drivers/STM32F0xx_HAL_Driver/Inc/stm32f0xx_ll_gpio.h ****   * @brief  Return 1 if all pins passed as parameter, of a dedicated port, are locked. else Return 
 677:Drivers/STM32F0xx_HAL_Driver/Inc/stm32f0xx_ll_gpio.h ****   * @rmtoll LCKR         LCKy          LL_GPIO_IsPinLocked
 678:Drivers/STM32F0xx_HAL_Driver/Inc/stm32f0xx_ll_gpio.h ****   * @param  GPIOx GPIO Port
 679:Drivers/STM32F0xx_HAL_Driver/Inc/stm32f0xx_ll_gpio.h ****   * @param  PinMask This parameter can be a combination of the following values:
 680:Drivers/STM32F0xx_HAL_Driver/Inc/stm32f0xx_ll_gpio.h ****   *         @arg @ref LL_GPIO_PIN_0
 681:Drivers/STM32F0xx_HAL_Driver/Inc/stm32f0xx_ll_gpio.h ****   *         @arg @ref LL_GPIO_PIN_1
 682:Drivers/STM32F0xx_HAL_Driver/Inc/stm32f0xx_ll_gpio.h ****   *         @arg @ref LL_GPIO_PIN_2
 683:Drivers/STM32F0xx_HAL_Driver/Inc/stm32f0xx_ll_gpio.h ****   *         @arg @ref LL_GPIO_PIN_3
 684:Drivers/STM32F0xx_HAL_Driver/Inc/stm32f0xx_ll_gpio.h ****   *         @arg @ref LL_GPIO_PIN_4
 685:Drivers/STM32F0xx_HAL_Driver/Inc/stm32f0xx_ll_gpio.h ****   *         @arg @ref LL_GPIO_PIN_5
 686:Drivers/STM32F0xx_HAL_Driver/Inc/stm32f0xx_ll_gpio.h ****   *         @arg @ref LL_GPIO_PIN_6
 687:Drivers/STM32F0xx_HAL_Driver/Inc/stm32f0xx_ll_gpio.h ****   *         @arg @ref LL_GPIO_PIN_7
 688:Drivers/STM32F0xx_HAL_Driver/Inc/stm32f0xx_ll_gpio.h ****   *         @arg @ref LL_GPIO_PIN_8
 689:Drivers/STM32F0xx_HAL_Driver/Inc/stm32f0xx_ll_gpio.h ****   *         @arg @ref LL_GPIO_PIN_9
 690:Drivers/STM32F0xx_HAL_Driver/Inc/stm32f0xx_ll_gpio.h ****   *         @arg @ref LL_GPIO_PIN_10
 691:Drivers/STM32F0xx_HAL_Driver/Inc/stm32f0xx_ll_gpio.h ****   *         @arg @ref LL_GPIO_PIN_11
 692:Drivers/STM32F0xx_HAL_Driver/Inc/stm32f0xx_ll_gpio.h ****   *         @arg @ref LL_GPIO_PIN_12
 693:Drivers/STM32F0xx_HAL_Driver/Inc/stm32f0xx_ll_gpio.h ****   *         @arg @ref LL_GPIO_PIN_13
 694:Drivers/STM32F0xx_HAL_Driver/Inc/stm32f0xx_ll_gpio.h ****   *         @arg @ref LL_GPIO_PIN_14
 695:Drivers/STM32F0xx_HAL_Driver/Inc/stm32f0xx_ll_gpio.h ****   *         @arg @ref LL_GPIO_PIN_15
 696:Drivers/STM32F0xx_HAL_Driver/Inc/stm32f0xx_ll_gpio.h ****   *         @arg @ref LL_GPIO_PIN_ALL
 697:Drivers/STM32F0xx_HAL_Driver/Inc/stm32f0xx_ll_gpio.h ****   * @retval State of bit (1 or 0).
 698:Drivers/STM32F0xx_HAL_Driver/Inc/stm32f0xx_ll_gpio.h ****   */
 699:Drivers/STM32F0xx_HAL_Driver/Inc/stm32f0xx_ll_gpio.h **** __STATIC_INLINE uint32_t LL_GPIO_IsPinLocked(GPIO_TypeDef *GPIOx, uint32_t PinMask)
 700:Drivers/STM32F0xx_HAL_Driver/Inc/stm32f0xx_ll_gpio.h **** {
 701:Drivers/STM32F0xx_HAL_Driver/Inc/stm32f0xx_ll_gpio.h ****   return (READ_BIT(GPIOx->LCKR, PinMask) == (PinMask));
 702:Drivers/STM32F0xx_HAL_Driver/Inc/stm32f0xx_ll_gpio.h **** }
 703:Drivers/STM32F0xx_HAL_Driver/Inc/stm32f0xx_ll_gpio.h **** 
 704:Drivers/STM32F0xx_HAL_Driver/Inc/stm32f0xx_ll_gpio.h **** /**
 705:Drivers/STM32F0xx_HAL_Driver/Inc/stm32f0xx_ll_gpio.h ****   * @brief  Return 1 if one of the pin of a dedicated port is locked. else return 0.
 706:Drivers/STM32F0xx_HAL_Driver/Inc/stm32f0xx_ll_gpio.h ****   * @rmtoll LCKR         LCKK          LL_GPIO_IsAnyPinLocked
 707:Drivers/STM32F0xx_HAL_Driver/Inc/stm32f0xx_ll_gpio.h ****   * @param  GPIOx GPIO Port
 708:Drivers/STM32F0xx_HAL_Driver/Inc/stm32f0xx_ll_gpio.h ****   * @retval State of bit (1 or 0).
 709:Drivers/STM32F0xx_HAL_Driver/Inc/stm32f0xx_ll_gpio.h ****   */
 710:Drivers/STM32F0xx_HAL_Driver/Inc/stm32f0xx_ll_gpio.h **** __STATIC_INLINE uint32_t LL_GPIO_IsAnyPinLocked(GPIO_TypeDef *GPIOx)
 711:Drivers/STM32F0xx_HAL_Driver/Inc/stm32f0xx_ll_gpio.h **** {
 712:Drivers/STM32F0xx_HAL_Driver/Inc/stm32f0xx_ll_gpio.h ****   return (READ_BIT(GPIOx->LCKR, GPIO_LCKR_LCKK) == (GPIO_LCKR_LCKK));
 713:Drivers/STM32F0xx_HAL_Driver/Inc/stm32f0xx_ll_gpio.h **** }
 714:Drivers/STM32F0xx_HAL_Driver/Inc/stm32f0xx_ll_gpio.h **** 
 715:Drivers/STM32F0xx_HAL_Driver/Inc/stm32f0xx_ll_gpio.h **** /**
 716:Drivers/STM32F0xx_HAL_Driver/Inc/stm32f0xx_ll_gpio.h ****   * @}
 717:Drivers/STM32F0xx_HAL_Driver/Inc/stm32f0xx_ll_gpio.h ****   */
 718:Drivers/STM32F0xx_HAL_Driver/Inc/stm32f0xx_ll_gpio.h **** 
 719:Drivers/STM32F0xx_HAL_Driver/Inc/stm32f0xx_ll_gpio.h **** /** @defgroup GPIO_LL_EF_Data_Access Data Access
 720:Drivers/STM32F0xx_HAL_Driver/Inc/stm32f0xx_ll_gpio.h ****   * @{
 721:Drivers/STM32F0xx_HAL_Driver/Inc/stm32f0xx_ll_gpio.h ****   */
 722:Drivers/STM32F0xx_HAL_Driver/Inc/stm32f0xx_ll_gpio.h **** 
 723:Drivers/STM32F0xx_HAL_Driver/Inc/stm32f0xx_ll_gpio.h **** /**
 724:Drivers/STM32F0xx_HAL_Driver/Inc/stm32f0xx_ll_gpio.h ****   * @brief  Return full input data register value for a dedicated port.
 725:Drivers/STM32F0xx_HAL_Driver/Inc/stm32f0xx_ll_gpio.h ****   * @rmtoll IDR          IDy           LL_GPIO_ReadInputPort
ARM GAS  C:\Users\bvv64\AppData\Local\Temp\ccg7jOW9.s 			page 15


 726:Drivers/STM32F0xx_HAL_Driver/Inc/stm32f0xx_ll_gpio.h ****   * @param  GPIOx GPIO Port
 727:Drivers/STM32F0xx_HAL_Driver/Inc/stm32f0xx_ll_gpio.h ****   * @retval Input data register value of port
 728:Drivers/STM32F0xx_HAL_Driver/Inc/stm32f0xx_ll_gpio.h ****   */
 729:Drivers/STM32F0xx_HAL_Driver/Inc/stm32f0xx_ll_gpio.h **** __STATIC_INLINE uint32_t LL_GPIO_ReadInputPort(GPIO_TypeDef *GPIOx)
 730:Drivers/STM32F0xx_HAL_Driver/Inc/stm32f0xx_ll_gpio.h **** {
 731:Drivers/STM32F0xx_HAL_Driver/Inc/stm32f0xx_ll_gpio.h ****   return (uint32_t)(READ_REG(GPIOx->IDR));
 732:Drivers/STM32F0xx_HAL_Driver/Inc/stm32f0xx_ll_gpio.h **** }
 733:Drivers/STM32F0xx_HAL_Driver/Inc/stm32f0xx_ll_gpio.h **** 
 734:Drivers/STM32F0xx_HAL_Driver/Inc/stm32f0xx_ll_gpio.h **** /**
 735:Drivers/STM32F0xx_HAL_Driver/Inc/stm32f0xx_ll_gpio.h ****   * @brief  Return if input data level for several pins of dedicated port is high or low.
 736:Drivers/STM32F0xx_HAL_Driver/Inc/stm32f0xx_ll_gpio.h ****   * @rmtoll IDR          IDy           LL_GPIO_IsInputPinSet
 737:Drivers/STM32F0xx_HAL_Driver/Inc/stm32f0xx_ll_gpio.h ****   * @param  GPIOx GPIO Port
 738:Drivers/STM32F0xx_HAL_Driver/Inc/stm32f0xx_ll_gpio.h ****   * @param  PinMask This parameter can be a combination of the following values:
 739:Drivers/STM32F0xx_HAL_Driver/Inc/stm32f0xx_ll_gpio.h ****   *         @arg @ref LL_GPIO_PIN_0
 740:Drivers/STM32F0xx_HAL_Driver/Inc/stm32f0xx_ll_gpio.h ****   *         @arg @ref LL_GPIO_PIN_1
 741:Drivers/STM32F0xx_HAL_Driver/Inc/stm32f0xx_ll_gpio.h ****   *         @arg @ref LL_GPIO_PIN_2
 742:Drivers/STM32F0xx_HAL_Driver/Inc/stm32f0xx_ll_gpio.h ****   *         @arg @ref LL_GPIO_PIN_3
 743:Drivers/STM32F0xx_HAL_Driver/Inc/stm32f0xx_ll_gpio.h ****   *         @arg @ref LL_GPIO_PIN_4
 744:Drivers/STM32F0xx_HAL_Driver/Inc/stm32f0xx_ll_gpio.h ****   *         @arg @ref LL_GPIO_PIN_5
 745:Drivers/STM32F0xx_HAL_Driver/Inc/stm32f0xx_ll_gpio.h ****   *         @arg @ref LL_GPIO_PIN_6
 746:Drivers/STM32F0xx_HAL_Driver/Inc/stm32f0xx_ll_gpio.h ****   *         @arg @ref LL_GPIO_PIN_7
 747:Drivers/STM32F0xx_HAL_Driver/Inc/stm32f0xx_ll_gpio.h ****   *         @arg @ref LL_GPIO_PIN_8
 748:Drivers/STM32F0xx_HAL_Driver/Inc/stm32f0xx_ll_gpio.h ****   *         @arg @ref LL_GPIO_PIN_9
 749:Drivers/STM32F0xx_HAL_Driver/Inc/stm32f0xx_ll_gpio.h ****   *         @arg @ref LL_GPIO_PIN_10
 750:Drivers/STM32F0xx_HAL_Driver/Inc/stm32f0xx_ll_gpio.h ****   *         @arg @ref LL_GPIO_PIN_11
 751:Drivers/STM32F0xx_HAL_Driver/Inc/stm32f0xx_ll_gpio.h ****   *         @arg @ref LL_GPIO_PIN_12
 752:Drivers/STM32F0xx_HAL_Driver/Inc/stm32f0xx_ll_gpio.h ****   *         @arg @ref LL_GPIO_PIN_13
 753:Drivers/STM32F0xx_HAL_Driver/Inc/stm32f0xx_ll_gpio.h ****   *         @arg @ref LL_GPIO_PIN_14
 754:Drivers/STM32F0xx_HAL_Driver/Inc/stm32f0xx_ll_gpio.h ****   *         @arg @ref LL_GPIO_PIN_15
 755:Drivers/STM32F0xx_HAL_Driver/Inc/stm32f0xx_ll_gpio.h ****   *         @arg @ref LL_GPIO_PIN_ALL
 756:Drivers/STM32F0xx_HAL_Driver/Inc/stm32f0xx_ll_gpio.h ****   * @retval State of bit (1 or 0).
 757:Drivers/STM32F0xx_HAL_Driver/Inc/stm32f0xx_ll_gpio.h ****   */
 758:Drivers/STM32F0xx_HAL_Driver/Inc/stm32f0xx_ll_gpio.h **** __STATIC_INLINE uint32_t LL_GPIO_IsInputPinSet(GPIO_TypeDef *GPIOx, uint32_t PinMask)
 759:Drivers/STM32F0xx_HAL_Driver/Inc/stm32f0xx_ll_gpio.h **** {
 760:Drivers/STM32F0xx_HAL_Driver/Inc/stm32f0xx_ll_gpio.h ****   return (READ_BIT(GPIOx->IDR, PinMask) == (PinMask));
 761:Drivers/STM32F0xx_HAL_Driver/Inc/stm32f0xx_ll_gpio.h **** }
 762:Drivers/STM32F0xx_HAL_Driver/Inc/stm32f0xx_ll_gpio.h **** 
 763:Drivers/STM32F0xx_HAL_Driver/Inc/stm32f0xx_ll_gpio.h **** /**
 764:Drivers/STM32F0xx_HAL_Driver/Inc/stm32f0xx_ll_gpio.h ****   * @brief  Write output data register for the port.
 765:Drivers/STM32F0xx_HAL_Driver/Inc/stm32f0xx_ll_gpio.h ****   * @rmtoll ODR          ODy           LL_GPIO_WriteOutputPort
 766:Drivers/STM32F0xx_HAL_Driver/Inc/stm32f0xx_ll_gpio.h ****   * @param  GPIOx GPIO Port
 767:Drivers/STM32F0xx_HAL_Driver/Inc/stm32f0xx_ll_gpio.h ****   * @param  PortValue Level value for each pin of the port
 768:Drivers/STM32F0xx_HAL_Driver/Inc/stm32f0xx_ll_gpio.h ****   * @retval None
 769:Drivers/STM32F0xx_HAL_Driver/Inc/stm32f0xx_ll_gpio.h ****   */
 770:Drivers/STM32F0xx_HAL_Driver/Inc/stm32f0xx_ll_gpio.h **** __STATIC_INLINE void LL_GPIO_WriteOutputPort(GPIO_TypeDef *GPIOx, uint32_t PortValue)
 771:Drivers/STM32F0xx_HAL_Driver/Inc/stm32f0xx_ll_gpio.h **** {
 772:Drivers/STM32F0xx_HAL_Driver/Inc/stm32f0xx_ll_gpio.h ****   WRITE_REG(GPIOx->ODR, PortValue);
 773:Drivers/STM32F0xx_HAL_Driver/Inc/stm32f0xx_ll_gpio.h **** }
 774:Drivers/STM32F0xx_HAL_Driver/Inc/stm32f0xx_ll_gpio.h **** 
 775:Drivers/STM32F0xx_HAL_Driver/Inc/stm32f0xx_ll_gpio.h **** /**
 776:Drivers/STM32F0xx_HAL_Driver/Inc/stm32f0xx_ll_gpio.h ****   * @brief  Return full output data register value for a dedicated port.
 777:Drivers/STM32F0xx_HAL_Driver/Inc/stm32f0xx_ll_gpio.h ****   * @rmtoll ODR          ODy           LL_GPIO_ReadOutputPort
 778:Drivers/STM32F0xx_HAL_Driver/Inc/stm32f0xx_ll_gpio.h ****   * @param  GPIOx GPIO Port
 779:Drivers/STM32F0xx_HAL_Driver/Inc/stm32f0xx_ll_gpio.h ****   * @retval Output data register value of port
 780:Drivers/STM32F0xx_HAL_Driver/Inc/stm32f0xx_ll_gpio.h ****   */
 781:Drivers/STM32F0xx_HAL_Driver/Inc/stm32f0xx_ll_gpio.h **** __STATIC_INLINE uint32_t LL_GPIO_ReadOutputPort(GPIO_TypeDef *GPIOx)
 782:Drivers/STM32F0xx_HAL_Driver/Inc/stm32f0xx_ll_gpio.h **** {
ARM GAS  C:\Users\bvv64\AppData\Local\Temp\ccg7jOW9.s 			page 16


 783:Drivers/STM32F0xx_HAL_Driver/Inc/stm32f0xx_ll_gpio.h ****   return (uint32_t)(READ_REG(GPIOx->ODR));
 784:Drivers/STM32F0xx_HAL_Driver/Inc/stm32f0xx_ll_gpio.h **** }
 785:Drivers/STM32F0xx_HAL_Driver/Inc/stm32f0xx_ll_gpio.h **** 
 786:Drivers/STM32F0xx_HAL_Driver/Inc/stm32f0xx_ll_gpio.h **** /**
 787:Drivers/STM32F0xx_HAL_Driver/Inc/stm32f0xx_ll_gpio.h ****   * @brief  Return if input data level for several pins of dedicated port is high or low.
 788:Drivers/STM32F0xx_HAL_Driver/Inc/stm32f0xx_ll_gpio.h ****   * @rmtoll ODR          ODy           LL_GPIO_IsOutputPinSet
 789:Drivers/STM32F0xx_HAL_Driver/Inc/stm32f0xx_ll_gpio.h ****   * @param  GPIOx GPIO Port
 790:Drivers/STM32F0xx_HAL_Driver/Inc/stm32f0xx_ll_gpio.h ****   * @param  PinMask This parameter can be a combination of the following values:
 791:Drivers/STM32F0xx_HAL_Driver/Inc/stm32f0xx_ll_gpio.h ****   *         @arg @ref LL_GPIO_PIN_0
 792:Drivers/STM32F0xx_HAL_Driver/Inc/stm32f0xx_ll_gpio.h ****   *         @arg @ref LL_GPIO_PIN_1
 793:Drivers/STM32F0xx_HAL_Driver/Inc/stm32f0xx_ll_gpio.h ****   *         @arg @ref LL_GPIO_PIN_2
 794:Drivers/STM32F0xx_HAL_Driver/Inc/stm32f0xx_ll_gpio.h ****   *         @arg @ref LL_GPIO_PIN_3
 795:Drivers/STM32F0xx_HAL_Driver/Inc/stm32f0xx_ll_gpio.h ****   *         @arg @ref LL_GPIO_PIN_4
 796:Drivers/STM32F0xx_HAL_Driver/Inc/stm32f0xx_ll_gpio.h ****   *         @arg @ref LL_GPIO_PIN_5
 797:Drivers/STM32F0xx_HAL_Driver/Inc/stm32f0xx_ll_gpio.h ****   *         @arg @ref LL_GPIO_PIN_6
 798:Drivers/STM32F0xx_HAL_Driver/Inc/stm32f0xx_ll_gpio.h ****   *         @arg @ref LL_GPIO_PIN_7
 799:Drivers/STM32F0xx_HAL_Driver/Inc/stm32f0xx_ll_gpio.h ****   *         @arg @ref LL_GPIO_PIN_8
 800:Drivers/STM32F0xx_HAL_Driver/Inc/stm32f0xx_ll_gpio.h ****   *         @arg @ref LL_GPIO_PIN_9
 801:Drivers/STM32F0xx_HAL_Driver/Inc/stm32f0xx_ll_gpio.h ****   *         @arg @ref LL_GPIO_PIN_10
 802:Drivers/STM32F0xx_HAL_Driver/Inc/stm32f0xx_ll_gpio.h ****   *         @arg @ref LL_GPIO_PIN_11
 803:Drivers/STM32F0xx_HAL_Driver/Inc/stm32f0xx_ll_gpio.h ****   *         @arg @ref LL_GPIO_PIN_12
 804:Drivers/STM32F0xx_HAL_Driver/Inc/stm32f0xx_ll_gpio.h ****   *         @arg @ref LL_GPIO_PIN_13
 805:Drivers/STM32F0xx_HAL_Driver/Inc/stm32f0xx_ll_gpio.h ****   *         @arg @ref LL_GPIO_PIN_14
 806:Drivers/STM32F0xx_HAL_Driver/Inc/stm32f0xx_ll_gpio.h ****   *         @arg @ref LL_GPIO_PIN_15
 807:Drivers/STM32F0xx_HAL_Driver/Inc/stm32f0xx_ll_gpio.h ****   *         @arg @ref LL_GPIO_PIN_ALL
 808:Drivers/STM32F0xx_HAL_Driver/Inc/stm32f0xx_ll_gpio.h ****   * @retval State of bit (1 or 0).
 809:Drivers/STM32F0xx_HAL_Driver/Inc/stm32f0xx_ll_gpio.h ****   */
 810:Drivers/STM32F0xx_HAL_Driver/Inc/stm32f0xx_ll_gpio.h **** __STATIC_INLINE uint32_t LL_GPIO_IsOutputPinSet(GPIO_TypeDef *GPIOx, uint32_t PinMask)
 811:Drivers/STM32F0xx_HAL_Driver/Inc/stm32f0xx_ll_gpio.h **** {
 812:Drivers/STM32F0xx_HAL_Driver/Inc/stm32f0xx_ll_gpio.h ****   return (READ_BIT(GPIOx->ODR, PinMask) == (PinMask));
 813:Drivers/STM32F0xx_HAL_Driver/Inc/stm32f0xx_ll_gpio.h **** }
 814:Drivers/STM32F0xx_HAL_Driver/Inc/stm32f0xx_ll_gpio.h **** 
 815:Drivers/STM32F0xx_HAL_Driver/Inc/stm32f0xx_ll_gpio.h **** /**
 816:Drivers/STM32F0xx_HAL_Driver/Inc/stm32f0xx_ll_gpio.h ****   * @brief  Set several pins to high level on dedicated gpio port.
 817:Drivers/STM32F0xx_HAL_Driver/Inc/stm32f0xx_ll_gpio.h ****   * @rmtoll BSRR         BSy           LL_GPIO_SetOutputPin
 818:Drivers/STM32F0xx_HAL_Driver/Inc/stm32f0xx_ll_gpio.h ****   * @param  GPIOx GPIO Port
 819:Drivers/STM32F0xx_HAL_Driver/Inc/stm32f0xx_ll_gpio.h ****   * @param  PinMask This parameter can be a combination of the following values:
 820:Drivers/STM32F0xx_HAL_Driver/Inc/stm32f0xx_ll_gpio.h ****   *         @arg @ref LL_GPIO_PIN_0
 821:Drivers/STM32F0xx_HAL_Driver/Inc/stm32f0xx_ll_gpio.h ****   *         @arg @ref LL_GPIO_PIN_1
 822:Drivers/STM32F0xx_HAL_Driver/Inc/stm32f0xx_ll_gpio.h ****   *         @arg @ref LL_GPIO_PIN_2
 823:Drivers/STM32F0xx_HAL_Driver/Inc/stm32f0xx_ll_gpio.h ****   *         @arg @ref LL_GPIO_PIN_3
 824:Drivers/STM32F0xx_HAL_Driver/Inc/stm32f0xx_ll_gpio.h ****   *         @arg @ref LL_GPIO_PIN_4
 825:Drivers/STM32F0xx_HAL_Driver/Inc/stm32f0xx_ll_gpio.h ****   *         @arg @ref LL_GPIO_PIN_5
 826:Drivers/STM32F0xx_HAL_Driver/Inc/stm32f0xx_ll_gpio.h ****   *         @arg @ref LL_GPIO_PIN_6
 827:Drivers/STM32F0xx_HAL_Driver/Inc/stm32f0xx_ll_gpio.h ****   *         @arg @ref LL_GPIO_PIN_7
 828:Drivers/STM32F0xx_HAL_Driver/Inc/stm32f0xx_ll_gpio.h ****   *         @arg @ref LL_GPIO_PIN_8
 829:Drivers/STM32F0xx_HAL_Driver/Inc/stm32f0xx_ll_gpio.h ****   *         @arg @ref LL_GPIO_PIN_9
 830:Drivers/STM32F0xx_HAL_Driver/Inc/stm32f0xx_ll_gpio.h ****   *         @arg @ref LL_GPIO_PIN_10
 831:Drivers/STM32F0xx_HAL_Driver/Inc/stm32f0xx_ll_gpio.h ****   *         @arg @ref LL_GPIO_PIN_11
 832:Drivers/STM32F0xx_HAL_Driver/Inc/stm32f0xx_ll_gpio.h ****   *         @arg @ref LL_GPIO_PIN_12
 833:Drivers/STM32F0xx_HAL_Driver/Inc/stm32f0xx_ll_gpio.h ****   *         @arg @ref LL_GPIO_PIN_13
 834:Drivers/STM32F0xx_HAL_Driver/Inc/stm32f0xx_ll_gpio.h ****   *         @arg @ref LL_GPIO_PIN_14
 835:Drivers/STM32F0xx_HAL_Driver/Inc/stm32f0xx_ll_gpio.h ****   *         @arg @ref LL_GPIO_PIN_15
 836:Drivers/STM32F0xx_HAL_Driver/Inc/stm32f0xx_ll_gpio.h ****   *         @arg @ref LL_GPIO_PIN_ALL
 837:Drivers/STM32F0xx_HAL_Driver/Inc/stm32f0xx_ll_gpio.h ****   * @retval None
 838:Drivers/STM32F0xx_HAL_Driver/Inc/stm32f0xx_ll_gpio.h ****   */
 839:Drivers/STM32F0xx_HAL_Driver/Inc/stm32f0xx_ll_gpio.h **** __STATIC_INLINE void LL_GPIO_SetOutputPin(GPIO_TypeDef *GPIOx, uint32_t PinMask)
ARM GAS  C:\Users\bvv64\AppData\Local\Temp\ccg7jOW9.s 			page 17


 840:Drivers/STM32F0xx_HAL_Driver/Inc/stm32f0xx_ll_gpio.h **** {
 841:Drivers/STM32F0xx_HAL_Driver/Inc/stm32f0xx_ll_gpio.h ****   WRITE_REG(GPIOx->BSRR, PinMask);
 842:Drivers/STM32F0xx_HAL_Driver/Inc/stm32f0xx_ll_gpio.h **** }
 843:Drivers/STM32F0xx_HAL_Driver/Inc/stm32f0xx_ll_gpio.h **** 
 844:Drivers/STM32F0xx_HAL_Driver/Inc/stm32f0xx_ll_gpio.h **** /**
 845:Drivers/STM32F0xx_HAL_Driver/Inc/stm32f0xx_ll_gpio.h ****   * @brief  Set several pins to low level on dedicated gpio port.
 846:Drivers/STM32F0xx_HAL_Driver/Inc/stm32f0xx_ll_gpio.h ****   * @rmtoll BRR          BRy           LL_GPIO_ResetOutputPin
 847:Drivers/STM32F0xx_HAL_Driver/Inc/stm32f0xx_ll_gpio.h ****   * @param  GPIOx GPIO Port
 848:Drivers/STM32F0xx_HAL_Driver/Inc/stm32f0xx_ll_gpio.h ****   * @param  PinMask This parameter can be a combination of the following values:
 849:Drivers/STM32F0xx_HAL_Driver/Inc/stm32f0xx_ll_gpio.h ****   *         @arg @ref LL_GPIO_PIN_0
 850:Drivers/STM32F0xx_HAL_Driver/Inc/stm32f0xx_ll_gpio.h ****   *         @arg @ref LL_GPIO_PIN_1
 851:Drivers/STM32F0xx_HAL_Driver/Inc/stm32f0xx_ll_gpio.h ****   *         @arg @ref LL_GPIO_PIN_2
 852:Drivers/STM32F0xx_HAL_Driver/Inc/stm32f0xx_ll_gpio.h ****   *         @arg @ref LL_GPIO_PIN_3
 853:Drivers/STM32F0xx_HAL_Driver/Inc/stm32f0xx_ll_gpio.h ****   *         @arg @ref LL_GPIO_PIN_4
 854:Drivers/STM32F0xx_HAL_Driver/Inc/stm32f0xx_ll_gpio.h ****   *         @arg @ref LL_GPIO_PIN_5
 855:Drivers/STM32F0xx_HAL_Driver/Inc/stm32f0xx_ll_gpio.h ****   *         @arg @ref LL_GPIO_PIN_6
 856:Drivers/STM32F0xx_HAL_Driver/Inc/stm32f0xx_ll_gpio.h ****   *         @arg @ref LL_GPIO_PIN_7
 857:Drivers/STM32F0xx_HAL_Driver/Inc/stm32f0xx_ll_gpio.h ****   *         @arg @ref LL_GPIO_PIN_8
 858:Drivers/STM32F0xx_HAL_Driver/Inc/stm32f0xx_ll_gpio.h ****   *         @arg @ref LL_GPIO_PIN_9
 859:Drivers/STM32F0xx_HAL_Driver/Inc/stm32f0xx_ll_gpio.h ****   *         @arg @ref LL_GPIO_PIN_10
 860:Drivers/STM32F0xx_HAL_Driver/Inc/stm32f0xx_ll_gpio.h ****   *         @arg @ref LL_GPIO_PIN_11
 861:Drivers/STM32F0xx_HAL_Driver/Inc/stm32f0xx_ll_gpio.h ****   *         @arg @ref LL_GPIO_PIN_12
 862:Drivers/STM32F0xx_HAL_Driver/Inc/stm32f0xx_ll_gpio.h ****   *         @arg @ref LL_GPIO_PIN_13
 863:Drivers/STM32F0xx_HAL_Driver/Inc/stm32f0xx_ll_gpio.h ****   *         @arg @ref LL_GPIO_PIN_14
 864:Drivers/STM32F0xx_HAL_Driver/Inc/stm32f0xx_ll_gpio.h ****   *         @arg @ref LL_GPIO_PIN_15
 865:Drivers/STM32F0xx_HAL_Driver/Inc/stm32f0xx_ll_gpio.h ****   *         @arg @ref LL_GPIO_PIN_ALL
 866:Drivers/STM32F0xx_HAL_Driver/Inc/stm32f0xx_ll_gpio.h ****   * @retval None
 867:Drivers/STM32F0xx_HAL_Driver/Inc/stm32f0xx_ll_gpio.h ****   */
 868:Drivers/STM32F0xx_HAL_Driver/Inc/stm32f0xx_ll_gpio.h **** __STATIC_INLINE void LL_GPIO_ResetOutputPin(GPIO_TypeDef *GPIOx, uint32_t PinMask)
  52              		.loc 2 868 22 view .LVU4
  53              	.LBB11:
 869:Drivers/STM32F0xx_HAL_Driver/Inc/stm32f0xx_ll_gpio.h **** {
 870:Drivers/STM32F0xx_HAL_Driver/Inc/stm32f0xx_ll_gpio.h ****   WRITE_REG(GPIOx->BRR, PinMask);
  54              		.loc 2 870 3 view .LVU5
  55 000e 9025     		movs	r5, #144
  56 0010 ED05     		lsls	r5, r5, #23
  57 0012 0124     		movs	r4, #1
  58 0014 AC62     		str	r4, [r5, #40]
  59              	.LVL1:
  60              		.loc 2 870 3 is_stmt 0 view .LVU6
  61              	.LBE11:
  62              	.LBE10:
  24:Core/Src/control.c ****     LL_GPIO_ResetOutputPin(GPIOA, LL_GPIO_PIN_1);
  63              		.loc 1 24 5 is_stmt 1 view .LVU7
  64              	.LBB12:
  65              	.LBI12:
 868:Drivers/STM32F0xx_HAL_Driver/Inc/stm32f0xx_ll_gpio.h **** {
  66              		.loc 2 868 22 view .LVU8
  67              	.LBB13:
  68              		.loc 2 870 3 view .LVU9
  69 0016 0226     		movs	r6, #2
  70 0018 AE62     		str	r6, [r5, #40]
  71              	.LVL2:
  72              		.loc 2 870 3 is_stmt 0 view .LVU10
  73              	.LBE13:
  74              	.LBE12:
  25:Core/Src/control.c **** 
ARM GAS  C:\Users\bvv64\AppData\Local\Temp\ccg7jOW9.s 			page 18


  26:Core/Src/control.c ****     GPIO_InitStruct.Pin = LL_GPIO_PIN_0;
  75              		.loc 1 26 5 is_stmt 1 view .LVU11
  76              		.loc 1 26 25 is_stmt 0 view .LVU12
  77 001a 0094     		str	r4, [sp]
  27:Core/Src/control.c ****     GPIO_InitStruct.Mode = LL_GPIO_MODE_OUTPUT;
  78              		.loc 1 27 5 is_stmt 1 view .LVU13
  79              		.loc 1 27 26 is_stmt 0 view .LVU14
  80 001c 0194     		str	r4, [sp, #4]
  28:Core/Src/control.c ****     GPIO_InitStruct.Speed = LL_GPIO_SPEED_FREQ_MEDIUM;
  81              		.loc 1 28 5 is_stmt 1 view .LVU15
  82              		.loc 1 28 27 is_stmt 0 view .LVU16
  83 001e 0294     		str	r4, [sp, #8]
  29:Core/Src/control.c ****     GPIO_InitStruct.OutputType = LL_GPIO_OUTPUT_PUSHPULL;
  84              		.loc 1 29 5 is_stmt 1 view .LVU17
  30:Core/Src/control.c ****     GPIO_InitStruct.Pull = LL_GPIO_PULL_NO;
  85              		.loc 1 30 5 view .LVU18
  31:Core/Src/control.c ****     LL_GPIO_Init(GPIOA, &GPIO_InitStruct);
  86              		.loc 1 31 5 view .LVU19
  87 0020 6946     		mov	r1, sp
  88 0022 2800     		movs	r0, r5
  89 0024 FFF7FEFF 		bl	LL_GPIO_Init
  90              	.LVL3:
  32:Core/Src/control.c ****  
  33:Core/Src/control.c ****     GPIO_InitStruct.Pin = LL_GPIO_PIN_1;
  91              		.loc 1 33 5 view .LVU20
  92              		.loc 1 33 25 is_stmt 0 view .LVU21
  93 0028 0096     		str	r6, [sp]
  34:Core/Src/control.c ****     GPIO_InitStruct.Mode = LL_GPIO_MODE_OUTPUT;
  94              		.loc 1 34 5 is_stmt 1 view .LVU22
  95              		.loc 1 34 26 is_stmt 0 view .LVU23
  96 002a 0194     		str	r4, [sp, #4]
  35:Core/Src/control.c ****     GPIO_InitStruct.Speed = LL_GPIO_SPEED_FREQ_MEDIUM;
  97              		.loc 1 35 5 is_stmt 1 view .LVU24
  98              		.loc 1 35 27 is_stmt 0 view .LVU25
  99 002c 0294     		str	r4, [sp, #8]
  36:Core/Src/control.c ****     GPIO_InitStruct.OutputType = LL_GPIO_OUTPUT_PUSHPULL;
 100              		.loc 1 36 5 is_stmt 1 view .LVU26
 101              		.loc 1 36 32 is_stmt 0 view .LVU27
 102 002e 0026     		movs	r6, #0
 103 0030 0396     		str	r6, [sp, #12]
  37:Core/Src/control.c ****     GPIO_InitStruct.Pull = LL_GPIO_PULL_NO;
 104              		.loc 1 37 5 is_stmt 1 view .LVU28
 105              		.loc 1 37 26 is_stmt 0 view .LVU29
 106 0032 0496     		str	r6, [sp, #16]
  38:Core/Src/control.c ****     LL_GPIO_Init(GPIOA, &GPIO_InitStruct);
 107              		.loc 1 38 5 is_stmt 1 view .LVU30
 108 0034 6946     		mov	r1, sp
 109 0036 2800     		movs	r0, r5
 110 0038 FFF7FEFF 		bl	LL_GPIO_Init
 111              	.LVL4:
  39:Core/Src/control.c **** 
  40:Core/Src/control.c ****     //*** Init TIM14 *************************************************
  41:Core/Src/control.c ****     RCC->APB1ENR |= RCC_APB1ENR_TIM14EN;
 112              		.loc 1 41 5 view .LVU31
 113              		.loc 1 41 18 is_stmt 0 view .LVU32
 114 003c 154A     		ldr	r2, .L2
 115 003e D169     		ldr	r1, [r2, #28]
ARM GAS  C:\Users\bvv64\AppData\Local\Temp\ccg7jOW9.s 			page 19


 116 0040 8023     		movs	r3, #128
 117 0042 5B00     		lsls	r3, r3, #1
 118 0044 0B43     		orrs	r3, r1
 119 0046 D361     		str	r3, [r2, #28]
  42:Core/Src/control.c **** 
  43:Core/Src/control.c ****     TIM14->PSC = (uint16_t)48000U-1;
 120              		.loc 1 43 5 is_stmt 1 view .LVU33
 121              		.loc 1 43 16 is_stmt 0 view .LVU34
 122 0048 134B     		ldr	r3, .L2+4
 123 004a 1448     		ldr	r0, .L2+8
 124 004c 9862     		str	r0, [r3, #40]
  44:Core/Src/control.c ****     
  45:Core/Src/control.c ****     TIM14->ARR = (uint16_t)100;
 125              		.loc 1 45 5 is_stmt 1 view .LVU35
 126              		.loc 1 45 16 is_stmt 0 view .LVU36
 127 004e 6421     		movs	r1, #100
 128 0050 D962     		str	r1, [r3, #44]
  46:Core/Src/control.c **** 
  47:Core/Src/control.c ****     TIM14->DIER |= TIM_DIER_UIE;
 129              		.loc 1 47 5 is_stmt 1 view .LVU37
 130              		.loc 1 47 17 is_stmt 0 view .LVU38
 131 0052 D968     		ldr	r1, [r3, #12]
 132 0054 2143     		orrs	r1, r4
 133 0056 D960     		str	r1, [r3, #12]
  48:Core/Src/control.c **** 
  49:Core/Src/control.c ****     TIM14->CR1 |= TIM_CR1_CEN;
 134              		.loc 1 49 5 is_stmt 1 view .LVU39
 135              		.loc 1 49 16 is_stmt 0 view .LVU40
 136 0058 1968     		ldr	r1, [r3]
 137 005a 2143     		orrs	r1, r4
 138 005c 1960     		str	r1, [r3]
  50:Core/Src/control.c **** 
  51:Core/Src/control.c ****     NVIC_EnableIRQ(TIM14_IRQn);
 139              		.loc 1 51 5 is_stmt 1 view .LVU41
 140              	.LVL5:
 141              	.LBB14:
 142              	.LBI14:
 143              		.file 3 "Drivers/CMSIS/Include/core_cm0.h"
   1:Drivers/CMSIS/Include/core_cm0.h **** /**************************************************************************//**
   2:Drivers/CMSIS/Include/core_cm0.h ****  * @file     core_cm0.h
   3:Drivers/CMSIS/Include/core_cm0.h ****  * @brief    CMSIS Cortex-M0 Core Peripheral Access Layer Header File
   4:Drivers/CMSIS/Include/core_cm0.h ****  * @version  V5.0.5
   5:Drivers/CMSIS/Include/core_cm0.h ****  * @date     28. May 2018
   6:Drivers/CMSIS/Include/core_cm0.h ****  ******************************************************************************/
   7:Drivers/CMSIS/Include/core_cm0.h **** /*
   8:Drivers/CMSIS/Include/core_cm0.h ****  * Copyright (c) 2009-2018 Arm Limited. All rights reserved.
   9:Drivers/CMSIS/Include/core_cm0.h ****  *
  10:Drivers/CMSIS/Include/core_cm0.h ****  * SPDX-License-Identifier: Apache-2.0
  11:Drivers/CMSIS/Include/core_cm0.h ****  *
  12:Drivers/CMSIS/Include/core_cm0.h ****  * Licensed under the Apache License, Version 2.0 (the License); you may
  13:Drivers/CMSIS/Include/core_cm0.h ****  * not use this file except in compliance with the License.
  14:Drivers/CMSIS/Include/core_cm0.h ****  * You may obtain a copy of the License at
  15:Drivers/CMSIS/Include/core_cm0.h ****  *
  16:Drivers/CMSIS/Include/core_cm0.h ****  * www.apache.org/licenses/LICENSE-2.0
  17:Drivers/CMSIS/Include/core_cm0.h ****  *
  18:Drivers/CMSIS/Include/core_cm0.h ****  * Unless required by applicable law or agreed to in writing, software
  19:Drivers/CMSIS/Include/core_cm0.h ****  * distributed under the License is distributed on an AS IS BASIS, WITHOUT
ARM GAS  C:\Users\bvv64\AppData\Local\Temp\ccg7jOW9.s 			page 20


  20:Drivers/CMSIS/Include/core_cm0.h ****  * WARRANTIES OR CONDITIONS OF ANY KIND, either express or implied.
  21:Drivers/CMSIS/Include/core_cm0.h ****  * See the License for the specific language governing permissions and
  22:Drivers/CMSIS/Include/core_cm0.h ****  * limitations under the License.
  23:Drivers/CMSIS/Include/core_cm0.h ****  */
  24:Drivers/CMSIS/Include/core_cm0.h **** 
  25:Drivers/CMSIS/Include/core_cm0.h **** #if   defined ( __ICCARM__ )
  26:Drivers/CMSIS/Include/core_cm0.h ****   #pragma system_include         /* treat file as system include file for MISRA check */
  27:Drivers/CMSIS/Include/core_cm0.h **** #elif defined (__clang__)
  28:Drivers/CMSIS/Include/core_cm0.h ****   #pragma clang system_header   /* treat file as system include file */
  29:Drivers/CMSIS/Include/core_cm0.h **** #endif
  30:Drivers/CMSIS/Include/core_cm0.h **** 
  31:Drivers/CMSIS/Include/core_cm0.h **** #ifndef __CORE_CM0_H_GENERIC
  32:Drivers/CMSIS/Include/core_cm0.h **** #define __CORE_CM0_H_GENERIC
  33:Drivers/CMSIS/Include/core_cm0.h **** 
  34:Drivers/CMSIS/Include/core_cm0.h **** #include <stdint.h>
  35:Drivers/CMSIS/Include/core_cm0.h **** 
  36:Drivers/CMSIS/Include/core_cm0.h **** #ifdef __cplusplus
  37:Drivers/CMSIS/Include/core_cm0.h ****  extern "C" {
  38:Drivers/CMSIS/Include/core_cm0.h **** #endif
  39:Drivers/CMSIS/Include/core_cm0.h **** 
  40:Drivers/CMSIS/Include/core_cm0.h **** /**
  41:Drivers/CMSIS/Include/core_cm0.h ****   \page CMSIS_MISRA_Exceptions  MISRA-C:2004 Compliance Exceptions
  42:Drivers/CMSIS/Include/core_cm0.h ****   CMSIS violates the following MISRA-C:2004 rules:
  43:Drivers/CMSIS/Include/core_cm0.h **** 
  44:Drivers/CMSIS/Include/core_cm0.h ****    \li Required Rule 8.5, object/function definition in header file.<br>
  45:Drivers/CMSIS/Include/core_cm0.h ****      Function definitions in header files are used to allow 'inlining'.
  46:Drivers/CMSIS/Include/core_cm0.h **** 
  47:Drivers/CMSIS/Include/core_cm0.h ****    \li Required Rule 18.4, declaration of union type or object of union type: '{...}'.<br>
  48:Drivers/CMSIS/Include/core_cm0.h ****      Unions are used for effective representation of core registers.
  49:Drivers/CMSIS/Include/core_cm0.h **** 
  50:Drivers/CMSIS/Include/core_cm0.h ****    \li Advisory Rule 19.7, Function-like macro defined.<br>
  51:Drivers/CMSIS/Include/core_cm0.h ****      Function-like macros are used to allow more efficient code.
  52:Drivers/CMSIS/Include/core_cm0.h ****  */
  53:Drivers/CMSIS/Include/core_cm0.h **** 
  54:Drivers/CMSIS/Include/core_cm0.h **** 
  55:Drivers/CMSIS/Include/core_cm0.h **** /*******************************************************************************
  56:Drivers/CMSIS/Include/core_cm0.h ****  *                 CMSIS definitions
  57:Drivers/CMSIS/Include/core_cm0.h ****  ******************************************************************************/
  58:Drivers/CMSIS/Include/core_cm0.h **** /**
  59:Drivers/CMSIS/Include/core_cm0.h ****   \ingroup Cortex_M0
  60:Drivers/CMSIS/Include/core_cm0.h ****   @{
  61:Drivers/CMSIS/Include/core_cm0.h ****  */
  62:Drivers/CMSIS/Include/core_cm0.h **** 
  63:Drivers/CMSIS/Include/core_cm0.h **** #include "cmsis_version.h"
  64:Drivers/CMSIS/Include/core_cm0.h ****  
  65:Drivers/CMSIS/Include/core_cm0.h **** /*  CMSIS CM0 definitions */
  66:Drivers/CMSIS/Include/core_cm0.h **** #define __CM0_CMSIS_VERSION_MAIN  (__CM_CMSIS_VERSION_MAIN)              /*!< \deprecated [31:16] C
  67:Drivers/CMSIS/Include/core_cm0.h **** #define __CM0_CMSIS_VERSION_SUB   (__CM_CMSIS_VERSION_SUB)               /*!< \deprecated [15:0]  C
  68:Drivers/CMSIS/Include/core_cm0.h **** #define __CM0_CMSIS_VERSION       ((__CM0_CMSIS_VERSION_MAIN << 16U) | \
  69:Drivers/CMSIS/Include/core_cm0.h ****                                     __CM0_CMSIS_VERSION_SUB           )  /*!< \deprecated CMSIS HAL
  70:Drivers/CMSIS/Include/core_cm0.h **** 
  71:Drivers/CMSIS/Include/core_cm0.h **** #define __CORTEX_M                (0U)                                   /*!< Cortex-M Core */
  72:Drivers/CMSIS/Include/core_cm0.h **** 
  73:Drivers/CMSIS/Include/core_cm0.h **** /** __FPU_USED indicates whether an FPU is used or not.
  74:Drivers/CMSIS/Include/core_cm0.h ****     This core does not support an FPU at all
  75:Drivers/CMSIS/Include/core_cm0.h **** */
  76:Drivers/CMSIS/Include/core_cm0.h **** #define __FPU_USED       0U
ARM GAS  C:\Users\bvv64\AppData\Local\Temp\ccg7jOW9.s 			page 21


  77:Drivers/CMSIS/Include/core_cm0.h **** 
  78:Drivers/CMSIS/Include/core_cm0.h **** #if defined ( __CC_ARM )
  79:Drivers/CMSIS/Include/core_cm0.h ****   #if defined __TARGET_FPU_VFP
  80:Drivers/CMSIS/Include/core_cm0.h ****     #error "Compiler generates FPU instructions for a device without an FPU (check __FPU_PRESENT)"
  81:Drivers/CMSIS/Include/core_cm0.h ****   #endif
  82:Drivers/CMSIS/Include/core_cm0.h **** 
  83:Drivers/CMSIS/Include/core_cm0.h **** #elif defined (__ARMCC_VERSION) && (__ARMCC_VERSION >= 6010050)
  84:Drivers/CMSIS/Include/core_cm0.h ****   #if defined __ARM_PCS_VFP
  85:Drivers/CMSIS/Include/core_cm0.h ****     #error "Compiler generates FPU instructions for a device without an FPU (check __FPU_PRESENT)"
  86:Drivers/CMSIS/Include/core_cm0.h ****   #endif
  87:Drivers/CMSIS/Include/core_cm0.h **** 
  88:Drivers/CMSIS/Include/core_cm0.h **** #elif defined ( __GNUC__ )
  89:Drivers/CMSIS/Include/core_cm0.h ****   #if defined (__VFP_FP__) && !defined(__SOFTFP__)
  90:Drivers/CMSIS/Include/core_cm0.h ****     #error "Compiler generates FPU instructions for a device without an FPU (check __FPU_PRESENT)"
  91:Drivers/CMSIS/Include/core_cm0.h ****   #endif
  92:Drivers/CMSIS/Include/core_cm0.h **** 
  93:Drivers/CMSIS/Include/core_cm0.h **** #elif defined ( __ICCARM__ )
  94:Drivers/CMSIS/Include/core_cm0.h ****   #if defined __ARMVFP__
  95:Drivers/CMSIS/Include/core_cm0.h ****     #error "Compiler generates FPU instructions for a device without an FPU (check __FPU_PRESENT)"
  96:Drivers/CMSIS/Include/core_cm0.h ****   #endif
  97:Drivers/CMSIS/Include/core_cm0.h **** 
  98:Drivers/CMSIS/Include/core_cm0.h **** #elif defined ( __TI_ARM__ )
  99:Drivers/CMSIS/Include/core_cm0.h ****   #if defined __TI_VFP_SUPPORT__
 100:Drivers/CMSIS/Include/core_cm0.h ****     #error "Compiler generates FPU instructions for a device without an FPU (check __FPU_PRESENT)"
 101:Drivers/CMSIS/Include/core_cm0.h ****   #endif
 102:Drivers/CMSIS/Include/core_cm0.h **** 
 103:Drivers/CMSIS/Include/core_cm0.h **** #elif defined ( __TASKING__ )
 104:Drivers/CMSIS/Include/core_cm0.h ****   #if defined __FPU_VFP__
 105:Drivers/CMSIS/Include/core_cm0.h ****     #error "Compiler generates FPU instructions for a device without an FPU (check __FPU_PRESENT)"
 106:Drivers/CMSIS/Include/core_cm0.h ****   #endif
 107:Drivers/CMSIS/Include/core_cm0.h **** 
 108:Drivers/CMSIS/Include/core_cm0.h **** #elif defined ( __CSMC__ )
 109:Drivers/CMSIS/Include/core_cm0.h ****   #if ( __CSMC__ & 0x400U)
 110:Drivers/CMSIS/Include/core_cm0.h ****     #error "Compiler generates FPU instructions for a device without an FPU (check __FPU_PRESENT)"
 111:Drivers/CMSIS/Include/core_cm0.h ****   #endif
 112:Drivers/CMSIS/Include/core_cm0.h **** 
 113:Drivers/CMSIS/Include/core_cm0.h **** #endif
 114:Drivers/CMSIS/Include/core_cm0.h **** 
 115:Drivers/CMSIS/Include/core_cm0.h **** #include "cmsis_compiler.h"               /* CMSIS compiler specific defines */
 116:Drivers/CMSIS/Include/core_cm0.h **** 
 117:Drivers/CMSIS/Include/core_cm0.h **** 
 118:Drivers/CMSIS/Include/core_cm0.h **** #ifdef __cplusplus
 119:Drivers/CMSIS/Include/core_cm0.h **** }
 120:Drivers/CMSIS/Include/core_cm0.h **** #endif
 121:Drivers/CMSIS/Include/core_cm0.h **** 
 122:Drivers/CMSIS/Include/core_cm0.h **** #endif /* __CORE_CM0_H_GENERIC */
 123:Drivers/CMSIS/Include/core_cm0.h **** 
 124:Drivers/CMSIS/Include/core_cm0.h **** #ifndef __CMSIS_GENERIC
 125:Drivers/CMSIS/Include/core_cm0.h **** 
 126:Drivers/CMSIS/Include/core_cm0.h **** #ifndef __CORE_CM0_H_DEPENDANT
 127:Drivers/CMSIS/Include/core_cm0.h **** #define __CORE_CM0_H_DEPENDANT
 128:Drivers/CMSIS/Include/core_cm0.h **** 
 129:Drivers/CMSIS/Include/core_cm0.h **** #ifdef __cplusplus
 130:Drivers/CMSIS/Include/core_cm0.h ****  extern "C" {
 131:Drivers/CMSIS/Include/core_cm0.h **** #endif
 132:Drivers/CMSIS/Include/core_cm0.h **** 
 133:Drivers/CMSIS/Include/core_cm0.h **** /* check device defines and use defaults */
ARM GAS  C:\Users\bvv64\AppData\Local\Temp\ccg7jOW9.s 			page 22


 134:Drivers/CMSIS/Include/core_cm0.h **** #if defined __CHECK_DEVICE_DEFINES
 135:Drivers/CMSIS/Include/core_cm0.h ****   #ifndef __CM0_REV
 136:Drivers/CMSIS/Include/core_cm0.h ****     #define __CM0_REV               0x0000U
 137:Drivers/CMSIS/Include/core_cm0.h ****     #warning "__CM0_REV not defined in device header file; using default!"
 138:Drivers/CMSIS/Include/core_cm0.h ****   #endif
 139:Drivers/CMSIS/Include/core_cm0.h **** 
 140:Drivers/CMSIS/Include/core_cm0.h ****   #ifndef __NVIC_PRIO_BITS
 141:Drivers/CMSIS/Include/core_cm0.h ****     #define __NVIC_PRIO_BITS          2U
 142:Drivers/CMSIS/Include/core_cm0.h ****     #warning "__NVIC_PRIO_BITS not defined in device header file; using default!"
 143:Drivers/CMSIS/Include/core_cm0.h ****   #endif
 144:Drivers/CMSIS/Include/core_cm0.h **** 
 145:Drivers/CMSIS/Include/core_cm0.h ****   #ifndef __Vendor_SysTickConfig
 146:Drivers/CMSIS/Include/core_cm0.h ****     #define __Vendor_SysTickConfig    0U
 147:Drivers/CMSIS/Include/core_cm0.h ****     #warning "__Vendor_SysTickConfig not defined in device header file; using default!"
 148:Drivers/CMSIS/Include/core_cm0.h ****   #endif
 149:Drivers/CMSIS/Include/core_cm0.h **** #endif
 150:Drivers/CMSIS/Include/core_cm0.h **** 
 151:Drivers/CMSIS/Include/core_cm0.h **** /* IO definitions (access restrictions to peripheral registers) */
 152:Drivers/CMSIS/Include/core_cm0.h **** /**
 153:Drivers/CMSIS/Include/core_cm0.h ****     \defgroup CMSIS_glob_defs CMSIS Global Defines
 154:Drivers/CMSIS/Include/core_cm0.h **** 
 155:Drivers/CMSIS/Include/core_cm0.h ****     <strong>IO Type Qualifiers</strong> are used
 156:Drivers/CMSIS/Include/core_cm0.h ****     \li to specify the access to peripheral variables.
 157:Drivers/CMSIS/Include/core_cm0.h ****     \li for automatic generation of peripheral register debug information.
 158:Drivers/CMSIS/Include/core_cm0.h **** */
 159:Drivers/CMSIS/Include/core_cm0.h **** #ifdef __cplusplus
 160:Drivers/CMSIS/Include/core_cm0.h ****   #define   __I     volatile             /*!< Defines 'read only' permissions */
 161:Drivers/CMSIS/Include/core_cm0.h **** #else
 162:Drivers/CMSIS/Include/core_cm0.h ****   #define   __I     volatile const       /*!< Defines 'read only' permissions */
 163:Drivers/CMSIS/Include/core_cm0.h **** #endif
 164:Drivers/CMSIS/Include/core_cm0.h **** #define     __O     volatile             /*!< Defines 'write only' permissions */
 165:Drivers/CMSIS/Include/core_cm0.h **** #define     __IO    volatile             /*!< Defines 'read / write' permissions */
 166:Drivers/CMSIS/Include/core_cm0.h **** 
 167:Drivers/CMSIS/Include/core_cm0.h **** /* following defines should be used for structure members */
 168:Drivers/CMSIS/Include/core_cm0.h **** #define     __IM     volatile const      /*! Defines 'read only' structure member permissions */
 169:Drivers/CMSIS/Include/core_cm0.h **** #define     __OM     volatile            /*! Defines 'write only' structure member permissions */
 170:Drivers/CMSIS/Include/core_cm0.h **** #define     __IOM    volatile            /*! Defines 'read / write' structure member permissions */
 171:Drivers/CMSIS/Include/core_cm0.h **** 
 172:Drivers/CMSIS/Include/core_cm0.h **** /*@} end of group Cortex_M0 */
 173:Drivers/CMSIS/Include/core_cm0.h **** 
 174:Drivers/CMSIS/Include/core_cm0.h **** 
 175:Drivers/CMSIS/Include/core_cm0.h **** 
 176:Drivers/CMSIS/Include/core_cm0.h **** /*******************************************************************************
 177:Drivers/CMSIS/Include/core_cm0.h ****  *                 Register Abstraction
 178:Drivers/CMSIS/Include/core_cm0.h ****   Core Register contain:
 179:Drivers/CMSIS/Include/core_cm0.h ****   - Core Register
 180:Drivers/CMSIS/Include/core_cm0.h ****   - Core NVIC Register
 181:Drivers/CMSIS/Include/core_cm0.h ****   - Core SCB Register
 182:Drivers/CMSIS/Include/core_cm0.h ****   - Core SysTick Register
 183:Drivers/CMSIS/Include/core_cm0.h ****  ******************************************************************************/
 184:Drivers/CMSIS/Include/core_cm0.h **** /**
 185:Drivers/CMSIS/Include/core_cm0.h ****   \defgroup CMSIS_core_register Defines and Type Definitions
 186:Drivers/CMSIS/Include/core_cm0.h ****   \brief Type definitions and defines for Cortex-M processor based devices.
 187:Drivers/CMSIS/Include/core_cm0.h **** */
 188:Drivers/CMSIS/Include/core_cm0.h **** 
 189:Drivers/CMSIS/Include/core_cm0.h **** /**
 190:Drivers/CMSIS/Include/core_cm0.h ****   \ingroup    CMSIS_core_register
ARM GAS  C:\Users\bvv64\AppData\Local\Temp\ccg7jOW9.s 			page 23


 191:Drivers/CMSIS/Include/core_cm0.h ****   \defgroup   CMSIS_CORE  Status and Control Registers
 192:Drivers/CMSIS/Include/core_cm0.h ****   \brief      Core Register type definitions.
 193:Drivers/CMSIS/Include/core_cm0.h ****   @{
 194:Drivers/CMSIS/Include/core_cm0.h ****  */
 195:Drivers/CMSIS/Include/core_cm0.h **** 
 196:Drivers/CMSIS/Include/core_cm0.h **** /**
 197:Drivers/CMSIS/Include/core_cm0.h ****   \brief  Union type to access the Application Program Status Register (APSR).
 198:Drivers/CMSIS/Include/core_cm0.h ****  */
 199:Drivers/CMSIS/Include/core_cm0.h **** typedef union
 200:Drivers/CMSIS/Include/core_cm0.h **** {
 201:Drivers/CMSIS/Include/core_cm0.h ****   struct
 202:Drivers/CMSIS/Include/core_cm0.h ****   {
 203:Drivers/CMSIS/Include/core_cm0.h ****     uint32_t _reserved0:28;              /*!< bit:  0..27  Reserved */
 204:Drivers/CMSIS/Include/core_cm0.h ****     uint32_t V:1;                        /*!< bit:     28  Overflow condition code flag */
 205:Drivers/CMSIS/Include/core_cm0.h ****     uint32_t C:1;                        /*!< bit:     29  Carry condition code flag */
 206:Drivers/CMSIS/Include/core_cm0.h ****     uint32_t Z:1;                        /*!< bit:     30  Zero condition code flag */
 207:Drivers/CMSIS/Include/core_cm0.h ****     uint32_t N:1;                        /*!< bit:     31  Negative condition code flag */
 208:Drivers/CMSIS/Include/core_cm0.h ****   } b;                                   /*!< Structure used for bit  access */
 209:Drivers/CMSIS/Include/core_cm0.h ****   uint32_t w;                            /*!< Type      used for word access */
 210:Drivers/CMSIS/Include/core_cm0.h **** } APSR_Type;
 211:Drivers/CMSIS/Include/core_cm0.h **** 
 212:Drivers/CMSIS/Include/core_cm0.h **** /* APSR Register Definitions */
 213:Drivers/CMSIS/Include/core_cm0.h **** #define APSR_N_Pos                         31U                                            /*!< APSR
 214:Drivers/CMSIS/Include/core_cm0.h **** #define APSR_N_Msk                         (1UL << APSR_N_Pos)                            /*!< APSR
 215:Drivers/CMSIS/Include/core_cm0.h **** 
 216:Drivers/CMSIS/Include/core_cm0.h **** #define APSR_Z_Pos                         30U                                            /*!< APSR
 217:Drivers/CMSIS/Include/core_cm0.h **** #define APSR_Z_Msk                         (1UL << APSR_Z_Pos)                            /*!< APSR
 218:Drivers/CMSIS/Include/core_cm0.h **** 
 219:Drivers/CMSIS/Include/core_cm0.h **** #define APSR_C_Pos                         29U                                            /*!< APSR
 220:Drivers/CMSIS/Include/core_cm0.h **** #define APSR_C_Msk                         (1UL << APSR_C_Pos)                            /*!< APSR
 221:Drivers/CMSIS/Include/core_cm0.h **** 
 222:Drivers/CMSIS/Include/core_cm0.h **** #define APSR_V_Pos                         28U                                            /*!< APSR
 223:Drivers/CMSIS/Include/core_cm0.h **** #define APSR_V_Msk                         (1UL << APSR_V_Pos)                            /*!< APSR
 224:Drivers/CMSIS/Include/core_cm0.h **** 
 225:Drivers/CMSIS/Include/core_cm0.h **** 
 226:Drivers/CMSIS/Include/core_cm0.h **** /**
 227:Drivers/CMSIS/Include/core_cm0.h ****   \brief  Union type to access the Interrupt Program Status Register (IPSR).
 228:Drivers/CMSIS/Include/core_cm0.h ****  */
 229:Drivers/CMSIS/Include/core_cm0.h **** typedef union
 230:Drivers/CMSIS/Include/core_cm0.h **** {
 231:Drivers/CMSIS/Include/core_cm0.h ****   struct
 232:Drivers/CMSIS/Include/core_cm0.h ****   {
 233:Drivers/CMSIS/Include/core_cm0.h ****     uint32_t ISR:9;                      /*!< bit:  0.. 8  Exception number */
 234:Drivers/CMSIS/Include/core_cm0.h ****     uint32_t _reserved0:23;              /*!< bit:  9..31  Reserved */
 235:Drivers/CMSIS/Include/core_cm0.h ****   } b;                                   /*!< Structure used for bit  access */
 236:Drivers/CMSIS/Include/core_cm0.h ****   uint32_t w;                            /*!< Type      used for word access */
 237:Drivers/CMSIS/Include/core_cm0.h **** } IPSR_Type;
 238:Drivers/CMSIS/Include/core_cm0.h **** 
 239:Drivers/CMSIS/Include/core_cm0.h **** /* IPSR Register Definitions */
 240:Drivers/CMSIS/Include/core_cm0.h **** #define IPSR_ISR_Pos                        0U                                            /*!< IPSR
 241:Drivers/CMSIS/Include/core_cm0.h **** #define IPSR_ISR_Msk                       (0x1FFUL /*<< IPSR_ISR_Pos*/)                  /*!< IPSR
 242:Drivers/CMSIS/Include/core_cm0.h **** 
 243:Drivers/CMSIS/Include/core_cm0.h **** 
 244:Drivers/CMSIS/Include/core_cm0.h **** /**
 245:Drivers/CMSIS/Include/core_cm0.h ****   \brief  Union type to access the Special-Purpose Program Status Registers (xPSR).
 246:Drivers/CMSIS/Include/core_cm0.h ****  */
 247:Drivers/CMSIS/Include/core_cm0.h **** typedef union
ARM GAS  C:\Users\bvv64\AppData\Local\Temp\ccg7jOW9.s 			page 24


 248:Drivers/CMSIS/Include/core_cm0.h **** {
 249:Drivers/CMSIS/Include/core_cm0.h ****   struct
 250:Drivers/CMSIS/Include/core_cm0.h ****   {
 251:Drivers/CMSIS/Include/core_cm0.h ****     uint32_t ISR:9;                      /*!< bit:  0.. 8  Exception number */
 252:Drivers/CMSIS/Include/core_cm0.h ****     uint32_t _reserved0:15;              /*!< bit:  9..23  Reserved */
 253:Drivers/CMSIS/Include/core_cm0.h ****     uint32_t T:1;                        /*!< bit:     24  Thumb bit        (read 0) */
 254:Drivers/CMSIS/Include/core_cm0.h ****     uint32_t _reserved1:3;               /*!< bit: 25..27  Reserved */
 255:Drivers/CMSIS/Include/core_cm0.h ****     uint32_t V:1;                        /*!< bit:     28  Overflow condition code flag */
 256:Drivers/CMSIS/Include/core_cm0.h ****     uint32_t C:1;                        /*!< bit:     29  Carry condition code flag */
 257:Drivers/CMSIS/Include/core_cm0.h ****     uint32_t Z:1;                        /*!< bit:     30  Zero condition code flag */
 258:Drivers/CMSIS/Include/core_cm0.h ****     uint32_t N:1;                        /*!< bit:     31  Negative condition code flag */
 259:Drivers/CMSIS/Include/core_cm0.h ****   } b;                                   /*!< Structure used for bit  access */
 260:Drivers/CMSIS/Include/core_cm0.h ****   uint32_t w;                            /*!< Type      used for word access */
 261:Drivers/CMSIS/Include/core_cm0.h **** } xPSR_Type;
 262:Drivers/CMSIS/Include/core_cm0.h **** 
 263:Drivers/CMSIS/Include/core_cm0.h **** /* xPSR Register Definitions */
 264:Drivers/CMSIS/Include/core_cm0.h **** #define xPSR_N_Pos                         31U                                            /*!< xPSR
 265:Drivers/CMSIS/Include/core_cm0.h **** #define xPSR_N_Msk                         (1UL << xPSR_N_Pos)                            /*!< xPSR
 266:Drivers/CMSIS/Include/core_cm0.h **** 
 267:Drivers/CMSIS/Include/core_cm0.h **** #define xPSR_Z_Pos                         30U                                            /*!< xPSR
 268:Drivers/CMSIS/Include/core_cm0.h **** #define xPSR_Z_Msk                         (1UL << xPSR_Z_Pos)                            /*!< xPSR
 269:Drivers/CMSIS/Include/core_cm0.h **** 
 270:Drivers/CMSIS/Include/core_cm0.h **** #define xPSR_C_Pos                         29U                                            /*!< xPSR
 271:Drivers/CMSIS/Include/core_cm0.h **** #define xPSR_C_Msk                         (1UL << xPSR_C_Pos)                            /*!< xPSR
 272:Drivers/CMSIS/Include/core_cm0.h **** 
 273:Drivers/CMSIS/Include/core_cm0.h **** #define xPSR_V_Pos                         28U                                            /*!< xPSR
 274:Drivers/CMSIS/Include/core_cm0.h **** #define xPSR_V_Msk                         (1UL << xPSR_V_Pos)                            /*!< xPSR
 275:Drivers/CMSIS/Include/core_cm0.h **** 
 276:Drivers/CMSIS/Include/core_cm0.h **** #define xPSR_T_Pos                         24U                                            /*!< xPSR
 277:Drivers/CMSIS/Include/core_cm0.h **** #define xPSR_T_Msk                         (1UL << xPSR_T_Pos)                            /*!< xPSR
 278:Drivers/CMSIS/Include/core_cm0.h **** 
 279:Drivers/CMSIS/Include/core_cm0.h **** #define xPSR_ISR_Pos                        0U                                            /*!< xPSR
 280:Drivers/CMSIS/Include/core_cm0.h **** #define xPSR_ISR_Msk                       (0x1FFUL /*<< xPSR_ISR_Pos*/)                  /*!< xPSR
 281:Drivers/CMSIS/Include/core_cm0.h **** 
 282:Drivers/CMSIS/Include/core_cm0.h **** 
 283:Drivers/CMSIS/Include/core_cm0.h **** /**
 284:Drivers/CMSIS/Include/core_cm0.h ****   \brief  Union type to access the Control Registers (CONTROL).
 285:Drivers/CMSIS/Include/core_cm0.h ****  */
 286:Drivers/CMSIS/Include/core_cm0.h **** typedef union
 287:Drivers/CMSIS/Include/core_cm0.h **** {
 288:Drivers/CMSIS/Include/core_cm0.h ****   struct
 289:Drivers/CMSIS/Include/core_cm0.h ****   {
 290:Drivers/CMSIS/Include/core_cm0.h ****     uint32_t _reserved0:1;               /*!< bit:      0  Reserved */
 291:Drivers/CMSIS/Include/core_cm0.h ****     uint32_t SPSEL:1;                    /*!< bit:      1  Stack to be used */
 292:Drivers/CMSIS/Include/core_cm0.h ****     uint32_t _reserved1:30;              /*!< bit:  2..31  Reserved */
 293:Drivers/CMSIS/Include/core_cm0.h ****   } b;                                   /*!< Structure used for bit  access */
 294:Drivers/CMSIS/Include/core_cm0.h ****   uint32_t w;                            /*!< Type      used for word access */
 295:Drivers/CMSIS/Include/core_cm0.h **** } CONTROL_Type;
 296:Drivers/CMSIS/Include/core_cm0.h **** 
 297:Drivers/CMSIS/Include/core_cm0.h **** /* CONTROL Register Definitions */
 298:Drivers/CMSIS/Include/core_cm0.h **** #define CONTROL_SPSEL_Pos                   1U                                            /*!< CONT
 299:Drivers/CMSIS/Include/core_cm0.h **** #define CONTROL_SPSEL_Msk                  (1UL << CONTROL_SPSEL_Pos)                     /*!< CONT
 300:Drivers/CMSIS/Include/core_cm0.h **** 
 301:Drivers/CMSIS/Include/core_cm0.h **** /*@} end of group CMSIS_CORE */
 302:Drivers/CMSIS/Include/core_cm0.h **** 
 303:Drivers/CMSIS/Include/core_cm0.h **** 
 304:Drivers/CMSIS/Include/core_cm0.h **** /**
ARM GAS  C:\Users\bvv64\AppData\Local\Temp\ccg7jOW9.s 			page 25


 305:Drivers/CMSIS/Include/core_cm0.h ****   \ingroup    CMSIS_core_register
 306:Drivers/CMSIS/Include/core_cm0.h ****   \defgroup   CMSIS_NVIC  Nested Vectored Interrupt Controller (NVIC)
 307:Drivers/CMSIS/Include/core_cm0.h ****   \brief      Type definitions for the NVIC Registers
 308:Drivers/CMSIS/Include/core_cm0.h ****   @{
 309:Drivers/CMSIS/Include/core_cm0.h ****  */
 310:Drivers/CMSIS/Include/core_cm0.h **** 
 311:Drivers/CMSIS/Include/core_cm0.h **** /**
 312:Drivers/CMSIS/Include/core_cm0.h ****   \brief  Structure type to access the Nested Vectored Interrupt Controller (NVIC).
 313:Drivers/CMSIS/Include/core_cm0.h ****  */
 314:Drivers/CMSIS/Include/core_cm0.h **** typedef struct
 315:Drivers/CMSIS/Include/core_cm0.h **** {
 316:Drivers/CMSIS/Include/core_cm0.h ****   __IOM uint32_t ISER[1U];               /*!< Offset: 0x000 (R/W)  Interrupt Set Enable Register */
 317:Drivers/CMSIS/Include/core_cm0.h ****         uint32_t RESERVED0[31U];
 318:Drivers/CMSIS/Include/core_cm0.h ****   __IOM uint32_t ICER[1U];               /*!< Offset: 0x080 (R/W)  Interrupt Clear Enable Register 
 319:Drivers/CMSIS/Include/core_cm0.h ****         uint32_t RSERVED1[31U];
 320:Drivers/CMSIS/Include/core_cm0.h ****   __IOM uint32_t ISPR[1U];               /*!< Offset: 0x100 (R/W)  Interrupt Set Pending Register *
 321:Drivers/CMSIS/Include/core_cm0.h ****         uint32_t RESERVED2[31U];
 322:Drivers/CMSIS/Include/core_cm0.h ****   __IOM uint32_t ICPR[1U];               /*!< Offset: 0x180 (R/W)  Interrupt Clear Pending Register
 323:Drivers/CMSIS/Include/core_cm0.h ****         uint32_t RESERVED3[31U];
 324:Drivers/CMSIS/Include/core_cm0.h ****         uint32_t RESERVED4[64U];
 325:Drivers/CMSIS/Include/core_cm0.h ****   __IOM uint32_t IP[8U];                 /*!< Offset: 0x300 (R/W)  Interrupt Priority Register */
 326:Drivers/CMSIS/Include/core_cm0.h **** }  NVIC_Type;
 327:Drivers/CMSIS/Include/core_cm0.h **** 
 328:Drivers/CMSIS/Include/core_cm0.h **** /*@} end of group CMSIS_NVIC */
 329:Drivers/CMSIS/Include/core_cm0.h **** 
 330:Drivers/CMSIS/Include/core_cm0.h **** 
 331:Drivers/CMSIS/Include/core_cm0.h **** /**
 332:Drivers/CMSIS/Include/core_cm0.h ****   \ingroup  CMSIS_core_register
 333:Drivers/CMSIS/Include/core_cm0.h ****   \defgroup CMSIS_SCB     System Control Block (SCB)
 334:Drivers/CMSIS/Include/core_cm0.h ****   \brief    Type definitions for the System Control Block Registers
 335:Drivers/CMSIS/Include/core_cm0.h ****   @{
 336:Drivers/CMSIS/Include/core_cm0.h ****  */
 337:Drivers/CMSIS/Include/core_cm0.h **** 
 338:Drivers/CMSIS/Include/core_cm0.h **** /**
 339:Drivers/CMSIS/Include/core_cm0.h ****   \brief  Structure type to access the System Control Block (SCB).
 340:Drivers/CMSIS/Include/core_cm0.h ****  */
 341:Drivers/CMSIS/Include/core_cm0.h **** typedef struct
 342:Drivers/CMSIS/Include/core_cm0.h **** {
 343:Drivers/CMSIS/Include/core_cm0.h ****   __IM  uint32_t CPUID;                  /*!< Offset: 0x000 (R/ )  CPUID Base Register */
 344:Drivers/CMSIS/Include/core_cm0.h ****   __IOM uint32_t ICSR;                   /*!< Offset: 0x004 (R/W)  Interrupt Control and State Regi
 345:Drivers/CMSIS/Include/core_cm0.h ****         uint32_t RESERVED0;
 346:Drivers/CMSIS/Include/core_cm0.h ****   __IOM uint32_t AIRCR;                  /*!< Offset: 0x00C (R/W)  Application Interrupt and Reset 
 347:Drivers/CMSIS/Include/core_cm0.h ****   __IOM uint32_t SCR;                    /*!< Offset: 0x010 (R/W)  System Control Register */
 348:Drivers/CMSIS/Include/core_cm0.h ****   __IOM uint32_t CCR;                    /*!< Offset: 0x014 (R/W)  Configuration Control Register *
 349:Drivers/CMSIS/Include/core_cm0.h ****         uint32_t RESERVED1;
 350:Drivers/CMSIS/Include/core_cm0.h ****   __IOM uint32_t SHP[2U];                /*!< Offset: 0x01C (R/W)  System Handlers Priority Registe
 351:Drivers/CMSIS/Include/core_cm0.h ****   __IOM uint32_t SHCSR;                  /*!< Offset: 0x024 (R/W)  System Handler Control and State
 352:Drivers/CMSIS/Include/core_cm0.h **** } SCB_Type;
 353:Drivers/CMSIS/Include/core_cm0.h **** 
 354:Drivers/CMSIS/Include/core_cm0.h **** /* SCB CPUID Register Definitions */
 355:Drivers/CMSIS/Include/core_cm0.h **** #define SCB_CPUID_IMPLEMENTER_Pos          24U                                            /*!< SCB 
 356:Drivers/CMSIS/Include/core_cm0.h **** #define SCB_CPUID_IMPLEMENTER_Msk          (0xFFUL << SCB_CPUID_IMPLEMENTER_Pos)          /*!< SCB 
 357:Drivers/CMSIS/Include/core_cm0.h **** 
 358:Drivers/CMSIS/Include/core_cm0.h **** #define SCB_CPUID_VARIANT_Pos              20U                                            /*!< SCB 
 359:Drivers/CMSIS/Include/core_cm0.h **** #define SCB_CPUID_VARIANT_Msk              (0xFUL << SCB_CPUID_VARIANT_Pos)               /*!< SCB 
 360:Drivers/CMSIS/Include/core_cm0.h **** 
 361:Drivers/CMSIS/Include/core_cm0.h **** #define SCB_CPUID_ARCHITECTURE_Pos         16U                                            /*!< SCB 
ARM GAS  C:\Users\bvv64\AppData\Local\Temp\ccg7jOW9.s 			page 26


 362:Drivers/CMSIS/Include/core_cm0.h **** #define SCB_CPUID_ARCHITECTURE_Msk         (0xFUL << SCB_CPUID_ARCHITECTURE_Pos)          /*!< SCB 
 363:Drivers/CMSIS/Include/core_cm0.h **** 
 364:Drivers/CMSIS/Include/core_cm0.h **** #define SCB_CPUID_PARTNO_Pos                4U                                            /*!< SCB 
 365:Drivers/CMSIS/Include/core_cm0.h **** #define SCB_CPUID_PARTNO_Msk               (0xFFFUL << SCB_CPUID_PARTNO_Pos)              /*!< SCB 
 366:Drivers/CMSIS/Include/core_cm0.h **** 
 367:Drivers/CMSIS/Include/core_cm0.h **** #define SCB_CPUID_REVISION_Pos              0U                                            /*!< SCB 
 368:Drivers/CMSIS/Include/core_cm0.h **** #define SCB_CPUID_REVISION_Msk             (0xFUL /*<< SCB_CPUID_REVISION_Pos*/)          /*!< SCB 
 369:Drivers/CMSIS/Include/core_cm0.h **** 
 370:Drivers/CMSIS/Include/core_cm0.h **** /* SCB Interrupt Control State Register Definitions */
 371:Drivers/CMSIS/Include/core_cm0.h **** #define SCB_ICSR_NMIPENDSET_Pos            31U                                            /*!< SCB 
 372:Drivers/CMSIS/Include/core_cm0.h **** #define SCB_ICSR_NMIPENDSET_Msk            (1UL << SCB_ICSR_NMIPENDSET_Pos)               /*!< SCB 
 373:Drivers/CMSIS/Include/core_cm0.h **** 
 374:Drivers/CMSIS/Include/core_cm0.h **** #define SCB_ICSR_PENDSVSET_Pos             28U                                            /*!< SCB 
 375:Drivers/CMSIS/Include/core_cm0.h **** #define SCB_ICSR_PENDSVSET_Msk             (1UL << SCB_ICSR_PENDSVSET_Pos)                /*!< SCB 
 376:Drivers/CMSIS/Include/core_cm0.h **** 
 377:Drivers/CMSIS/Include/core_cm0.h **** #define SCB_ICSR_PENDSVCLR_Pos             27U                                            /*!< SCB 
 378:Drivers/CMSIS/Include/core_cm0.h **** #define SCB_ICSR_PENDSVCLR_Msk             (1UL << SCB_ICSR_PENDSVCLR_Pos)                /*!< SCB 
 379:Drivers/CMSIS/Include/core_cm0.h **** 
 380:Drivers/CMSIS/Include/core_cm0.h **** #define SCB_ICSR_PENDSTSET_Pos             26U                                            /*!< SCB 
 381:Drivers/CMSIS/Include/core_cm0.h **** #define SCB_ICSR_PENDSTSET_Msk             (1UL << SCB_ICSR_PENDSTSET_Pos)                /*!< SCB 
 382:Drivers/CMSIS/Include/core_cm0.h **** 
 383:Drivers/CMSIS/Include/core_cm0.h **** #define SCB_ICSR_PENDSTCLR_Pos             25U                                            /*!< SCB 
 384:Drivers/CMSIS/Include/core_cm0.h **** #define SCB_ICSR_PENDSTCLR_Msk             (1UL << SCB_ICSR_PENDSTCLR_Pos)                /*!< SCB 
 385:Drivers/CMSIS/Include/core_cm0.h **** 
 386:Drivers/CMSIS/Include/core_cm0.h **** #define SCB_ICSR_ISRPREEMPT_Pos            23U                                            /*!< SCB 
 387:Drivers/CMSIS/Include/core_cm0.h **** #define SCB_ICSR_ISRPREEMPT_Msk            (1UL << SCB_ICSR_ISRPREEMPT_Pos)               /*!< SCB 
 388:Drivers/CMSIS/Include/core_cm0.h **** 
 389:Drivers/CMSIS/Include/core_cm0.h **** #define SCB_ICSR_ISRPENDING_Pos            22U                                            /*!< SCB 
 390:Drivers/CMSIS/Include/core_cm0.h **** #define SCB_ICSR_ISRPENDING_Msk            (1UL << SCB_ICSR_ISRPENDING_Pos)               /*!< SCB 
 391:Drivers/CMSIS/Include/core_cm0.h **** 
 392:Drivers/CMSIS/Include/core_cm0.h **** #define SCB_ICSR_VECTPENDING_Pos           12U                                            /*!< SCB 
 393:Drivers/CMSIS/Include/core_cm0.h **** #define SCB_ICSR_VECTPENDING_Msk           (0x1FFUL << SCB_ICSR_VECTPENDING_Pos)          /*!< SCB 
 394:Drivers/CMSIS/Include/core_cm0.h **** 
 395:Drivers/CMSIS/Include/core_cm0.h **** #define SCB_ICSR_VECTACTIVE_Pos             0U                                            /*!< SCB 
 396:Drivers/CMSIS/Include/core_cm0.h **** #define SCB_ICSR_VECTACTIVE_Msk            (0x1FFUL /*<< SCB_ICSR_VECTACTIVE_Pos*/)       /*!< SCB 
 397:Drivers/CMSIS/Include/core_cm0.h **** 
 398:Drivers/CMSIS/Include/core_cm0.h **** /* SCB Application Interrupt and Reset Control Register Definitions */
 399:Drivers/CMSIS/Include/core_cm0.h **** #define SCB_AIRCR_VECTKEY_Pos              16U                                            /*!< SCB 
 400:Drivers/CMSIS/Include/core_cm0.h **** #define SCB_AIRCR_VECTKEY_Msk              (0xFFFFUL << SCB_AIRCR_VECTKEY_Pos)            /*!< SCB 
 401:Drivers/CMSIS/Include/core_cm0.h **** 
 402:Drivers/CMSIS/Include/core_cm0.h **** #define SCB_AIRCR_VECTKEYSTAT_Pos          16U                                            /*!< SCB 
 403:Drivers/CMSIS/Include/core_cm0.h **** #define SCB_AIRCR_VECTKEYSTAT_Msk          (0xFFFFUL << SCB_AIRCR_VECTKEYSTAT_Pos)        /*!< SCB 
 404:Drivers/CMSIS/Include/core_cm0.h **** 
 405:Drivers/CMSIS/Include/core_cm0.h **** #define SCB_AIRCR_ENDIANESS_Pos            15U                                            /*!< SCB 
 406:Drivers/CMSIS/Include/core_cm0.h **** #define SCB_AIRCR_ENDIANESS_Msk            (1UL << SCB_AIRCR_ENDIANESS_Pos)               /*!< SCB 
 407:Drivers/CMSIS/Include/core_cm0.h **** 
 408:Drivers/CMSIS/Include/core_cm0.h **** #define SCB_AIRCR_SYSRESETREQ_Pos           2U                                            /*!< SCB 
 409:Drivers/CMSIS/Include/core_cm0.h **** #define SCB_AIRCR_SYSRESETREQ_Msk          (1UL << SCB_AIRCR_SYSRESETREQ_Pos)             /*!< SCB 
 410:Drivers/CMSIS/Include/core_cm0.h **** 
 411:Drivers/CMSIS/Include/core_cm0.h **** #define SCB_AIRCR_VECTCLRACTIVE_Pos         1U                                            /*!< SCB 
 412:Drivers/CMSIS/Include/core_cm0.h **** #define SCB_AIRCR_VECTCLRACTIVE_Msk        (1UL << SCB_AIRCR_VECTCLRACTIVE_Pos)           /*!< SCB 
 413:Drivers/CMSIS/Include/core_cm0.h **** 
 414:Drivers/CMSIS/Include/core_cm0.h **** /* SCB System Control Register Definitions */
 415:Drivers/CMSIS/Include/core_cm0.h **** #define SCB_SCR_SEVONPEND_Pos               4U                                            /*!< SCB 
 416:Drivers/CMSIS/Include/core_cm0.h **** #define SCB_SCR_SEVONPEND_Msk              (1UL << SCB_SCR_SEVONPEND_Pos)                 /*!< SCB 
 417:Drivers/CMSIS/Include/core_cm0.h **** 
 418:Drivers/CMSIS/Include/core_cm0.h **** #define SCB_SCR_SLEEPDEEP_Pos               2U                                            /*!< SCB 
ARM GAS  C:\Users\bvv64\AppData\Local\Temp\ccg7jOW9.s 			page 27


 419:Drivers/CMSIS/Include/core_cm0.h **** #define SCB_SCR_SLEEPDEEP_Msk              (1UL << SCB_SCR_SLEEPDEEP_Pos)                 /*!< SCB 
 420:Drivers/CMSIS/Include/core_cm0.h **** 
 421:Drivers/CMSIS/Include/core_cm0.h **** #define SCB_SCR_SLEEPONEXIT_Pos             1U                                            /*!< SCB 
 422:Drivers/CMSIS/Include/core_cm0.h **** #define SCB_SCR_SLEEPONEXIT_Msk            (1UL << SCB_SCR_SLEEPONEXIT_Pos)               /*!< SCB 
 423:Drivers/CMSIS/Include/core_cm0.h **** 
 424:Drivers/CMSIS/Include/core_cm0.h **** /* SCB Configuration Control Register Definitions */
 425:Drivers/CMSIS/Include/core_cm0.h **** #define SCB_CCR_STKALIGN_Pos                9U                                            /*!< SCB 
 426:Drivers/CMSIS/Include/core_cm0.h **** #define SCB_CCR_STKALIGN_Msk               (1UL << SCB_CCR_STKALIGN_Pos)                  /*!< SCB 
 427:Drivers/CMSIS/Include/core_cm0.h **** 
 428:Drivers/CMSIS/Include/core_cm0.h **** #define SCB_CCR_UNALIGN_TRP_Pos             3U                                            /*!< SCB 
 429:Drivers/CMSIS/Include/core_cm0.h **** #define SCB_CCR_UNALIGN_TRP_Msk            (1UL << SCB_CCR_UNALIGN_TRP_Pos)               /*!< SCB 
 430:Drivers/CMSIS/Include/core_cm0.h **** 
 431:Drivers/CMSIS/Include/core_cm0.h **** /* SCB System Handler Control and State Register Definitions */
 432:Drivers/CMSIS/Include/core_cm0.h **** #define SCB_SHCSR_SVCALLPENDED_Pos         15U                                            /*!< SCB 
 433:Drivers/CMSIS/Include/core_cm0.h **** #define SCB_SHCSR_SVCALLPENDED_Msk         (1UL << SCB_SHCSR_SVCALLPENDED_Pos)            /*!< SCB 
 434:Drivers/CMSIS/Include/core_cm0.h **** 
 435:Drivers/CMSIS/Include/core_cm0.h **** /*@} end of group CMSIS_SCB */
 436:Drivers/CMSIS/Include/core_cm0.h **** 
 437:Drivers/CMSIS/Include/core_cm0.h **** 
 438:Drivers/CMSIS/Include/core_cm0.h **** /**
 439:Drivers/CMSIS/Include/core_cm0.h ****   \ingroup  CMSIS_core_register
 440:Drivers/CMSIS/Include/core_cm0.h ****   \defgroup CMSIS_SysTick     System Tick Timer (SysTick)
 441:Drivers/CMSIS/Include/core_cm0.h ****   \brief    Type definitions for the System Timer Registers.
 442:Drivers/CMSIS/Include/core_cm0.h ****   @{
 443:Drivers/CMSIS/Include/core_cm0.h ****  */
 444:Drivers/CMSIS/Include/core_cm0.h **** 
 445:Drivers/CMSIS/Include/core_cm0.h **** /**
 446:Drivers/CMSIS/Include/core_cm0.h ****   \brief  Structure type to access the System Timer (SysTick).
 447:Drivers/CMSIS/Include/core_cm0.h ****  */
 448:Drivers/CMSIS/Include/core_cm0.h **** typedef struct
 449:Drivers/CMSIS/Include/core_cm0.h **** {
 450:Drivers/CMSIS/Include/core_cm0.h ****   __IOM uint32_t CTRL;                   /*!< Offset: 0x000 (R/W)  SysTick Control and Status Regis
 451:Drivers/CMSIS/Include/core_cm0.h ****   __IOM uint32_t LOAD;                   /*!< Offset: 0x004 (R/W)  SysTick Reload Value Register */
 452:Drivers/CMSIS/Include/core_cm0.h ****   __IOM uint32_t VAL;                    /*!< Offset: 0x008 (R/W)  SysTick Current Value Register *
 453:Drivers/CMSIS/Include/core_cm0.h ****   __IM  uint32_t CALIB;                  /*!< Offset: 0x00C (R/ )  SysTick Calibration Register */
 454:Drivers/CMSIS/Include/core_cm0.h **** } SysTick_Type;
 455:Drivers/CMSIS/Include/core_cm0.h **** 
 456:Drivers/CMSIS/Include/core_cm0.h **** /* SysTick Control / Status Register Definitions */
 457:Drivers/CMSIS/Include/core_cm0.h **** #define SysTick_CTRL_COUNTFLAG_Pos         16U                                            /*!< SysT
 458:Drivers/CMSIS/Include/core_cm0.h **** #define SysTick_CTRL_COUNTFLAG_Msk         (1UL << SysTick_CTRL_COUNTFLAG_Pos)            /*!< SysT
 459:Drivers/CMSIS/Include/core_cm0.h **** 
 460:Drivers/CMSIS/Include/core_cm0.h **** #define SysTick_CTRL_CLKSOURCE_Pos          2U                                            /*!< SysT
 461:Drivers/CMSIS/Include/core_cm0.h **** #define SysTick_CTRL_CLKSOURCE_Msk         (1UL << SysTick_CTRL_CLKSOURCE_Pos)            /*!< SysT
 462:Drivers/CMSIS/Include/core_cm0.h **** 
 463:Drivers/CMSIS/Include/core_cm0.h **** #define SysTick_CTRL_TICKINT_Pos            1U                                            /*!< SysT
 464:Drivers/CMSIS/Include/core_cm0.h **** #define SysTick_CTRL_TICKINT_Msk           (1UL << SysTick_CTRL_TICKINT_Pos)              /*!< SysT
 465:Drivers/CMSIS/Include/core_cm0.h **** 
 466:Drivers/CMSIS/Include/core_cm0.h **** #define SysTick_CTRL_ENABLE_Pos             0U                                            /*!< SysT
 467:Drivers/CMSIS/Include/core_cm0.h **** #define SysTick_CTRL_ENABLE_Msk            (1UL /*<< SysTick_CTRL_ENABLE_Pos*/)           /*!< SysT
 468:Drivers/CMSIS/Include/core_cm0.h **** 
 469:Drivers/CMSIS/Include/core_cm0.h **** /* SysTick Reload Register Definitions */
 470:Drivers/CMSIS/Include/core_cm0.h **** #define SysTick_LOAD_RELOAD_Pos             0U                                            /*!< SysT
 471:Drivers/CMSIS/Include/core_cm0.h **** #define SysTick_LOAD_RELOAD_Msk            (0xFFFFFFUL /*<< SysTick_LOAD_RELOAD_Pos*/)    /*!< SysT
 472:Drivers/CMSIS/Include/core_cm0.h **** 
 473:Drivers/CMSIS/Include/core_cm0.h **** /* SysTick Current Register Definitions */
 474:Drivers/CMSIS/Include/core_cm0.h **** #define SysTick_VAL_CURRENT_Pos             0U                                            /*!< SysT
 475:Drivers/CMSIS/Include/core_cm0.h **** #define SysTick_VAL_CURRENT_Msk            (0xFFFFFFUL /*<< SysTick_VAL_CURRENT_Pos*/)    /*!< SysT
ARM GAS  C:\Users\bvv64\AppData\Local\Temp\ccg7jOW9.s 			page 28


 476:Drivers/CMSIS/Include/core_cm0.h **** 
 477:Drivers/CMSIS/Include/core_cm0.h **** /* SysTick Calibration Register Definitions */
 478:Drivers/CMSIS/Include/core_cm0.h **** #define SysTick_CALIB_NOREF_Pos            31U                                            /*!< SysT
 479:Drivers/CMSIS/Include/core_cm0.h **** #define SysTick_CALIB_NOREF_Msk            (1UL << SysTick_CALIB_NOREF_Pos)               /*!< SysT
 480:Drivers/CMSIS/Include/core_cm0.h **** 
 481:Drivers/CMSIS/Include/core_cm0.h **** #define SysTick_CALIB_SKEW_Pos             30U                                            /*!< SysT
 482:Drivers/CMSIS/Include/core_cm0.h **** #define SysTick_CALIB_SKEW_Msk             (1UL << SysTick_CALIB_SKEW_Pos)                /*!< SysT
 483:Drivers/CMSIS/Include/core_cm0.h **** 
 484:Drivers/CMSIS/Include/core_cm0.h **** #define SysTick_CALIB_TENMS_Pos             0U                                            /*!< SysT
 485:Drivers/CMSIS/Include/core_cm0.h **** #define SysTick_CALIB_TENMS_Msk            (0xFFFFFFUL /*<< SysTick_CALIB_TENMS_Pos*/)    /*!< SysT
 486:Drivers/CMSIS/Include/core_cm0.h **** 
 487:Drivers/CMSIS/Include/core_cm0.h **** /*@} end of group CMSIS_SysTick */
 488:Drivers/CMSIS/Include/core_cm0.h **** 
 489:Drivers/CMSIS/Include/core_cm0.h **** 
 490:Drivers/CMSIS/Include/core_cm0.h **** /**
 491:Drivers/CMSIS/Include/core_cm0.h ****   \ingroup  CMSIS_core_register
 492:Drivers/CMSIS/Include/core_cm0.h ****   \defgroup CMSIS_CoreDebug       Core Debug Registers (CoreDebug)
 493:Drivers/CMSIS/Include/core_cm0.h ****   \brief    Cortex-M0 Core Debug Registers (DCB registers, SHCSR, and DFSR) are only accessible ove
 494:Drivers/CMSIS/Include/core_cm0.h ****             Therefore they are not covered by the Cortex-M0 header file.
 495:Drivers/CMSIS/Include/core_cm0.h ****   @{
 496:Drivers/CMSIS/Include/core_cm0.h ****  */
 497:Drivers/CMSIS/Include/core_cm0.h **** /*@} end of group CMSIS_CoreDebug */
 498:Drivers/CMSIS/Include/core_cm0.h **** 
 499:Drivers/CMSIS/Include/core_cm0.h **** 
 500:Drivers/CMSIS/Include/core_cm0.h **** /**
 501:Drivers/CMSIS/Include/core_cm0.h ****   \ingroup    CMSIS_core_register
 502:Drivers/CMSIS/Include/core_cm0.h ****   \defgroup   CMSIS_core_bitfield     Core register bit field macros
 503:Drivers/CMSIS/Include/core_cm0.h ****   \brief      Macros for use with bit field definitions (xxx_Pos, xxx_Msk).
 504:Drivers/CMSIS/Include/core_cm0.h ****   @{
 505:Drivers/CMSIS/Include/core_cm0.h ****  */
 506:Drivers/CMSIS/Include/core_cm0.h **** 
 507:Drivers/CMSIS/Include/core_cm0.h **** /**
 508:Drivers/CMSIS/Include/core_cm0.h ****   \brief   Mask and shift a bit field value for use in a register bit range.
 509:Drivers/CMSIS/Include/core_cm0.h ****   \param[in] field  Name of the register bit field.
 510:Drivers/CMSIS/Include/core_cm0.h ****   \param[in] value  Value of the bit field. This parameter is interpreted as an uint32_t type.
 511:Drivers/CMSIS/Include/core_cm0.h ****   \return           Masked and shifted value.
 512:Drivers/CMSIS/Include/core_cm0.h **** */
 513:Drivers/CMSIS/Include/core_cm0.h **** #define _VAL2FLD(field, value)    (((uint32_t)(value) << field ## _Pos) & field ## _Msk)
 514:Drivers/CMSIS/Include/core_cm0.h **** 
 515:Drivers/CMSIS/Include/core_cm0.h **** /**
 516:Drivers/CMSIS/Include/core_cm0.h ****   \brief     Mask and shift a register value to extract a bit filed value.
 517:Drivers/CMSIS/Include/core_cm0.h ****   \param[in] field  Name of the register bit field.
 518:Drivers/CMSIS/Include/core_cm0.h ****   \param[in] value  Value of register. This parameter is interpreted as an uint32_t type.
 519:Drivers/CMSIS/Include/core_cm0.h ****   \return           Masked and shifted bit field value.
 520:Drivers/CMSIS/Include/core_cm0.h **** */
 521:Drivers/CMSIS/Include/core_cm0.h **** #define _FLD2VAL(field, value)    (((uint32_t)(value) & field ## _Msk) >> field ## _Pos)
 522:Drivers/CMSIS/Include/core_cm0.h **** 
 523:Drivers/CMSIS/Include/core_cm0.h **** /*@} end of group CMSIS_core_bitfield */
 524:Drivers/CMSIS/Include/core_cm0.h **** 
 525:Drivers/CMSIS/Include/core_cm0.h **** 
 526:Drivers/CMSIS/Include/core_cm0.h **** /**
 527:Drivers/CMSIS/Include/core_cm0.h ****   \ingroup    CMSIS_core_register
 528:Drivers/CMSIS/Include/core_cm0.h ****   \defgroup   CMSIS_core_base     Core Definitions
 529:Drivers/CMSIS/Include/core_cm0.h ****   \brief      Definitions for base addresses, unions, and structures.
 530:Drivers/CMSIS/Include/core_cm0.h ****   @{
 531:Drivers/CMSIS/Include/core_cm0.h ****  */
 532:Drivers/CMSIS/Include/core_cm0.h **** 
ARM GAS  C:\Users\bvv64\AppData\Local\Temp\ccg7jOW9.s 			page 29


 533:Drivers/CMSIS/Include/core_cm0.h **** /* Memory mapping of Core Hardware */
 534:Drivers/CMSIS/Include/core_cm0.h **** #define SCS_BASE            (0xE000E000UL)                            /*!< System Control Space Bas
 535:Drivers/CMSIS/Include/core_cm0.h **** #define SysTick_BASE        (SCS_BASE +  0x0010UL)                    /*!< SysTick Base Address */
 536:Drivers/CMSIS/Include/core_cm0.h **** #define NVIC_BASE           (SCS_BASE +  0x0100UL)                    /*!< NVIC Base Address */
 537:Drivers/CMSIS/Include/core_cm0.h **** #define SCB_BASE            (SCS_BASE +  0x0D00UL)                    /*!< System Control Block Bas
 538:Drivers/CMSIS/Include/core_cm0.h **** 
 539:Drivers/CMSIS/Include/core_cm0.h **** #define SCB                 ((SCB_Type       *)     SCB_BASE      )   /*!< SCB configuration struct
 540:Drivers/CMSIS/Include/core_cm0.h **** #define SysTick             ((SysTick_Type   *)     SysTick_BASE  )   /*!< SysTick configuration st
 541:Drivers/CMSIS/Include/core_cm0.h **** #define NVIC                ((NVIC_Type      *)     NVIC_BASE     )   /*!< NVIC configuration struc
 542:Drivers/CMSIS/Include/core_cm0.h **** 
 543:Drivers/CMSIS/Include/core_cm0.h **** 
 544:Drivers/CMSIS/Include/core_cm0.h **** /*@} */
 545:Drivers/CMSIS/Include/core_cm0.h **** 
 546:Drivers/CMSIS/Include/core_cm0.h **** 
 547:Drivers/CMSIS/Include/core_cm0.h **** 
 548:Drivers/CMSIS/Include/core_cm0.h **** /*******************************************************************************
 549:Drivers/CMSIS/Include/core_cm0.h ****  *                Hardware Abstraction Layer
 550:Drivers/CMSIS/Include/core_cm0.h ****   Core Function Interface contains:
 551:Drivers/CMSIS/Include/core_cm0.h ****   - Core NVIC Functions
 552:Drivers/CMSIS/Include/core_cm0.h ****   - Core SysTick Functions
 553:Drivers/CMSIS/Include/core_cm0.h ****   - Core Register Access Functions
 554:Drivers/CMSIS/Include/core_cm0.h ****  ******************************************************************************/
 555:Drivers/CMSIS/Include/core_cm0.h **** /**
 556:Drivers/CMSIS/Include/core_cm0.h ****   \defgroup CMSIS_Core_FunctionInterface Functions and Instructions Reference
 557:Drivers/CMSIS/Include/core_cm0.h **** */
 558:Drivers/CMSIS/Include/core_cm0.h **** 
 559:Drivers/CMSIS/Include/core_cm0.h **** 
 560:Drivers/CMSIS/Include/core_cm0.h **** 
 561:Drivers/CMSIS/Include/core_cm0.h **** /* ##########################   NVIC functions  #################################### */
 562:Drivers/CMSIS/Include/core_cm0.h **** /**
 563:Drivers/CMSIS/Include/core_cm0.h ****   \ingroup  CMSIS_Core_FunctionInterface
 564:Drivers/CMSIS/Include/core_cm0.h ****   \defgroup CMSIS_Core_NVICFunctions NVIC Functions
 565:Drivers/CMSIS/Include/core_cm0.h ****   \brief    Functions that manage interrupts and exceptions via the NVIC.
 566:Drivers/CMSIS/Include/core_cm0.h ****   @{
 567:Drivers/CMSIS/Include/core_cm0.h ****  */
 568:Drivers/CMSIS/Include/core_cm0.h **** 
 569:Drivers/CMSIS/Include/core_cm0.h **** #ifdef CMSIS_NVIC_VIRTUAL
 570:Drivers/CMSIS/Include/core_cm0.h ****   #ifndef CMSIS_NVIC_VIRTUAL_HEADER_FILE
 571:Drivers/CMSIS/Include/core_cm0.h ****     #define CMSIS_NVIC_VIRTUAL_HEADER_FILE "cmsis_nvic_virtual.h"
 572:Drivers/CMSIS/Include/core_cm0.h ****   #endif
 573:Drivers/CMSIS/Include/core_cm0.h ****   #include CMSIS_NVIC_VIRTUAL_HEADER_FILE
 574:Drivers/CMSIS/Include/core_cm0.h **** #else
 575:Drivers/CMSIS/Include/core_cm0.h ****   #define NVIC_SetPriorityGrouping    __NVIC_SetPriorityGrouping
 576:Drivers/CMSIS/Include/core_cm0.h ****   #define NVIC_GetPriorityGrouping    __NVIC_GetPriorityGrouping
 577:Drivers/CMSIS/Include/core_cm0.h ****   #define NVIC_EnableIRQ              __NVIC_EnableIRQ
 578:Drivers/CMSIS/Include/core_cm0.h ****   #define NVIC_GetEnableIRQ           __NVIC_GetEnableIRQ
 579:Drivers/CMSIS/Include/core_cm0.h ****   #define NVIC_DisableIRQ             __NVIC_DisableIRQ
 580:Drivers/CMSIS/Include/core_cm0.h ****   #define NVIC_GetPendingIRQ          __NVIC_GetPendingIRQ
 581:Drivers/CMSIS/Include/core_cm0.h ****   #define NVIC_SetPendingIRQ          __NVIC_SetPendingIRQ
 582:Drivers/CMSIS/Include/core_cm0.h ****   #define NVIC_ClearPendingIRQ        __NVIC_ClearPendingIRQ
 583:Drivers/CMSIS/Include/core_cm0.h **** /*#define NVIC_GetActive              __NVIC_GetActive             not available for Cortex-M0 */
 584:Drivers/CMSIS/Include/core_cm0.h ****   #define NVIC_SetPriority            __NVIC_SetPriority
 585:Drivers/CMSIS/Include/core_cm0.h ****   #define NVIC_GetPriority            __NVIC_GetPriority
 586:Drivers/CMSIS/Include/core_cm0.h ****   #define NVIC_SystemReset            __NVIC_SystemReset
 587:Drivers/CMSIS/Include/core_cm0.h **** #endif /* CMSIS_NVIC_VIRTUAL */
 588:Drivers/CMSIS/Include/core_cm0.h **** 
 589:Drivers/CMSIS/Include/core_cm0.h **** #ifdef CMSIS_VECTAB_VIRTUAL
ARM GAS  C:\Users\bvv64\AppData\Local\Temp\ccg7jOW9.s 			page 30


 590:Drivers/CMSIS/Include/core_cm0.h ****   #ifndef CMSIS_VECTAB_VIRTUAL_HEADER_FILE
 591:Drivers/CMSIS/Include/core_cm0.h ****     #define CMSIS_VECTAB_VIRTUAL_HEADER_FILE "cmsis_vectab_virtual.h"
 592:Drivers/CMSIS/Include/core_cm0.h ****   #endif
 593:Drivers/CMSIS/Include/core_cm0.h ****   #include CMSIS_VECTAB_VIRTUAL_HEADER_FILE
 594:Drivers/CMSIS/Include/core_cm0.h **** #else
 595:Drivers/CMSIS/Include/core_cm0.h ****   #define NVIC_SetVector              __NVIC_SetVector
 596:Drivers/CMSIS/Include/core_cm0.h ****   #define NVIC_GetVector              __NVIC_GetVector
 597:Drivers/CMSIS/Include/core_cm0.h **** #endif  /* (CMSIS_VECTAB_VIRTUAL) */
 598:Drivers/CMSIS/Include/core_cm0.h **** 
 599:Drivers/CMSIS/Include/core_cm0.h **** #define NVIC_USER_IRQ_OFFSET          16
 600:Drivers/CMSIS/Include/core_cm0.h **** 
 601:Drivers/CMSIS/Include/core_cm0.h **** 
 602:Drivers/CMSIS/Include/core_cm0.h **** /* The following EXC_RETURN values are saved the LR on exception entry */
 603:Drivers/CMSIS/Include/core_cm0.h **** #define EXC_RETURN_HANDLER         (0xFFFFFFF1UL)     /* return to Handler mode, uses MSP after ret
 604:Drivers/CMSIS/Include/core_cm0.h **** #define EXC_RETURN_THREAD_MSP      (0xFFFFFFF9UL)     /* return to Thread mode, uses MSP after retu
 605:Drivers/CMSIS/Include/core_cm0.h **** #define EXC_RETURN_THREAD_PSP      (0xFFFFFFFDUL)     /* return to Thread mode, uses PSP after retu
 606:Drivers/CMSIS/Include/core_cm0.h **** 
 607:Drivers/CMSIS/Include/core_cm0.h **** 
 608:Drivers/CMSIS/Include/core_cm0.h **** /* Interrupt Priorities are WORD accessible only under Armv6-M                  */
 609:Drivers/CMSIS/Include/core_cm0.h **** /* The following MACROS handle generation of the register offset and byte masks */
 610:Drivers/CMSIS/Include/core_cm0.h **** #define _BIT_SHIFT(IRQn)         (  ((((uint32_t)(int32_t)(IRQn))         )      &  0x03UL) * 8UL)
 611:Drivers/CMSIS/Include/core_cm0.h **** #define _SHP_IDX(IRQn)           ( (((((uint32_t)(int32_t)(IRQn)) & 0x0FUL)-8UL) >>    2UL)      )
 612:Drivers/CMSIS/Include/core_cm0.h **** #define _IP_IDX(IRQn)            (   (((uint32_t)(int32_t)(IRQn))                >>    2UL)      )
 613:Drivers/CMSIS/Include/core_cm0.h **** 
 614:Drivers/CMSIS/Include/core_cm0.h **** #define __NVIC_SetPriorityGrouping(X) (void)(X)
 615:Drivers/CMSIS/Include/core_cm0.h **** #define __NVIC_GetPriorityGrouping()  (0U)
 616:Drivers/CMSIS/Include/core_cm0.h **** 
 617:Drivers/CMSIS/Include/core_cm0.h **** /**
 618:Drivers/CMSIS/Include/core_cm0.h ****   \brief   Enable Interrupt
 619:Drivers/CMSIS/Include/core_cm0.h ****   \details Enables a device specific interrupt in the NVIC interrupt controller.
 620:Drivers/CMSIS/Include/core_cm0.h ****   \param [in]      IRQn  Device specific interrupt number.
 621:Drivers/CMSIS/Include/core_cm0.h ****   \note    IRQn must not be negative.
 622:Drivers/CMSIS/Include/core_cm0.h ****  */
 623:Drivers/CMSIS/Include/core_cm0.h **** __STATIC_INLINE void __NVIC_EnableIRQ(IRQn_Type IRQn)
 144              		.loc 3 623 22 view .LVU42
 145              	.LBB15:
 624:Drivers/CMSIS/Include/core_cm0.h **** {
 625:Drivers/CMSIS/Include/core_cm0.h ****   if ((int32_t)(IRQn) >= 0)
 146              		.loc 3 625 3 view .LVU43
 626:Drivers/CMSIS/Include/core_cm0.h ****   {
 627:Drivers/CMSIS/Include/core_cm0.h ****     NVIC->ISER[0U] = (uint32_t)(1UL << (((uint32_t)IRQn) & 0x1FUL));
 147              		.loc 3 627 5 view .LVU44
 148              		.loc 3 627 20 is_stmt 0 view .LVU45
 149 005e 1049     		ldr	r1, .L2+12
 150 0060 8023     		movs	r3, #128
 151 0062 1B03     		lsls	r3, r3, #12
 152 0064 0B60     		str	r3, [r1]
 153              	.LVL6:
 154              		.loc 3 627 20 view .LVU46
 155              	.LBE15:
 156              	.LBE14:
  52:Core/Src/control.c ****     //****************************************************************
  53:Core/Src/control.c **** 
  54:Core/Src/control.c ****     //*** init TIM17 *************************************************
  55:Core/Src/control.c ****     RCC->APB2ENR |= RCC_APB2ENR_TIM17EN;
 157              		.loc 1 55 5 is_stmt 1 view .LVU47
 158              		.loc 1 55 18 is_stmt 0 view .LVU48
ARM GAS  C:\Users\bvv64\AppData\Local\Temp\ccg7jOW9.s 			page 31


 159 0066 9569     		ldr	r5, [r2, #24]
 160 0068 8023     		movs	r3, #128
 161 006a DB02     		lsls	r3, r3, #11
 162 006c 2B43     		orrs	r3, r5
 163 006e 9361     		str	r3, [r2, #24]
  56:Core/Src/control.c **** 
  57:Core/Src/control.c ****     TIM17->PSC = (uint16_t)48000U-1; //1kHz
 164              		.loc 1 57 5 is_stmt 1 view .LVU49
 165              		.loc 1 57 16 is_stmt 0 view .LVU50
 166 0070 0C4B     		ldr	r3, .L2+16
 167 0072 9862     		str	r0, [r3, #40]
  58:Core/Src/control.c **** 
  59:Core/Src/control.c ****     TIM17->ARR = (uint16_t)1000;
 168              		.loc 1 59 5 is_stmt 1 view .LVU51
 169              		.loc 1 59 16 is_stmt 0 view .LVU52
 170 0074 FA22     		movs	r2, #250
 171 0076 9200     		lsls	r2, r2, #2
 172 0078 DA62     		str	r2, [r3, #44]
  60:Core/Src/control.c **** 
  61:Core/Src/control.c ****     TIM17->DIER |= TIM_DIER_UIE;
 173              		.loc 1 61 5 is_stmt 1 view .LVU53
 174              		.loc 1 61 17 is_stmt 0 view .LVU54
 175 007a DA68     		ldr	r2, [r3, #12]
 176 007c 2243     		orrs	r2, r4
 177 007e DA60     		str	r2, [r3, #12]
  62:Core/Src/control.c **** 
  63:Core/Src/control.c ****     TIM17->CR1 |= TIM_CR1_CEN;
 178              		.loc 1 63 5 is_stmt 1 view .LVU55
 179              		.loc 1 63 16 is_stmt 0 view .LVU56
 180 0080 1A68     		ldr	r2, [r3]
 181 0082 1443     		orrs	r4, r2
 182 0084 1C60     		str	r4, [r3]
  64:Core/Src/control.c **** 
  65:Core/Src/control.c ****     NVIC_EnableIRQ(TIM17_IRQn);
 183              		.loc 1 65 5 is_stmt 1 view .LVU57
 184              	.LVL7:
 185              	.LBB16:
 186              	.LBI16:
 623:Drivers/CMSIS/Include/core_cm0.h **** {
 187              		.loc 3 623 22 view .LVU58
 188              	.LBB17:
 625:Drivers/CMSIS/Include/core_cm0.h ****   {
 189              		.loc 3 625 3 view .LVU59
 190              		.loc 3 627 5 view .LVU60
 191              		.loc 3 627 20 is_stmt 0 view .LVU61
 192 0086 8023     		movs	r3, #128
 193 0088 DB03     		lsls	r3, r3, #15
 194 008a 0B60     		str	r3, [r1]
 195              	.LVL8:
 196              		.loc 3 627 20 view .LVU62
 197              	.LBE17:
 198              	.LBE16:
  66:Core/Src/control.c ****     //**************************************************************
  67:Core/Src/control.c **** 
  68:Core/Src/control.c ****     stateShow = TIME_SHOW;
 199              		.loc 1 68 5 is_stmt 1 view .LVU63
 200              		.loc 1 68 15 is_stmt 0 view .LVU64
ARM GAS  C:\Users\bvv64\AppData\Local\Temp\ccg7jOW9.s 			page 32


 201 008c 064B     		ldr	r3, .L2+20
 202 008e 1E70     		strb	r6, [r3]
  69:Core/Src/control.c **** }
 203              		.loc 1 69 1 view .LVU65
 204 0090 06B0     		add	sp, sp, #24
 205              		@ sp needed
 206 0092 70BD     		pop	{r4, r5, r6, pc}
 207              	.L3:
 208              		.align	2
 209              	.L2:
 210 0094 00100240 		.word	1073876992
 211 0098 00200040 		.word	1073750016
 212 009c 7FBB0000 		.word	47999
 213 00a0 00E100E0 		.word	-536813312
 214 00a4 00480140 		.word	1073825792
 215 00a8 00000000 		.word	.LANCHOR0
 216              		.cfi_endproc
 217              	.LFE334:
 219              		.section	.text.clockControl,"ax",%progbits
 220              		.align	1
 221              		.global	clockControl
 222              		.syntax unified
 223              		.code	16
 224              		.thumb_func
 226              	clockControl:
 227              	.LFB335:
  70:Core/Src/control.c **** 
  71:Core/Src/control.c **** void clockControl(void){
 228              		.loc 1 71 24 is_stmt 1 view -0
 229              		.cfi_startproc
 230              		@ args = 0, pretend = 0, frame = 0
 231              		@ frame_needed = 0, uses_anonymous_args = 0
 232 0000 F8B5     		push	{r3, r4, r5, r6, r7, lr}
 233              	.LCFI2:
 234              		.cfi_def_cfa_offset 24
 235              		.cfi_offset 3, -24
 236              		.cfi_offset 4, -20
 237              		.cfi_offset 5, -16
 238              		.cfi_offset 6, -12
 239              		.cfi_offset 7, -8
 240              		.cfi_offset 14, -4
 241 0002 CE46     		mov	lr, r9
 242 0004 4746     		mov	r7, r8
 243 0006 80B5     		push	{r7, lr}
 244              	.LCFI3:
 245              		.cfi_def_cfa_offset 32
 246              		.cfi_offset 8, -32
 247              		.cfi_offset 9, -28
  72:Core/Src/control.c ****     if (getStateButSelect())
 248              		.loc 1 72 5 view .LVU67
 249              		.loc 1 72 9 is_stmt 0 view .LVU68
 250 0008 FFF7FEFF 		bl	getStateButSelect
 251              	.LVL9:
 252              		.loc 1 72 8 view .LVU69
 253 000c 0028     		cmp	r0, #0
 254 000e 0CD0     		beq	.L5
  73:Core/Src/control.c ****     {
ARM GAS  C:\Users\bvv64\AppData\Local\Temp\ccg7jOW9.s 			page 33


  74:Core/Src/control.c ****         stateShow++;
 255              		.loc 1 74 9 is_stmt 1 view .LVU70
 256              		.loc 1 74 18 is_stmt 0 view .LVU71
 257 0010 884A     		ldr	r2, .L43
 258 0012 1378     		ldrb	r3, [r2]
 259 0014 0133     		adds	r3, r3, #1
 260 0016 DBB2     		uxtb	r3, r3
 261 0018 1370     		strb	r3, [r2]
  75:Core/Src/control.c ****         if (stateShow > YEAR_SHOW) stateShow = TIME_SHOW;
 262              		.loc 1 75 9 is_stmt 1 view .LVU72
 263              		.loc 1 75 12 is_stmt 0 view .LVU73
 264 001a 022B     		cmp	r3, #2
 265 001c 02D9     		bls	.L6
 266              		.loc 1 75 36 is_stmt 1 discriminator 1 view .LVU74
 267              		.loc 1 75 46 is_stmt 0 discriminator 1 view .LVU75
 268 001e 1300     		movs	r3, r2
 269 0020 0022     		movs	r2, #0
 270 0022 1A70     		strb	r2, [r3]
 271              	.L6:
  76:Core/Src/control.c ****         setStateButSelect(NO_PRESSED);
 272              		.loc 1 76 9 is_stmt 1 view .LVU76
 273 0024 0020     		movs	r0, #0
 274 0026 FFF7FEFF 		bl	setStateButSelect
 275              	.LVL10:
 276              	.L5:
  77:Core/Src/control.c ****     }    
  78:Core/Src/control.c ****     
  79:Core/Src/control.c ****     if (fReady && stateShow == TIME_SHOW)       //индикация часов и минут
 277              		.loc 1 79 5 view .LVU77
 278              		.loc 1 79 9 is_stmt 0 view .LVU78
 279 002a 834B     		ldr	r3, .L43+4
 280 002c 1B78     		ldrb	r3, [r3]
 281              		.loc 1 79 8 view .LVU79
 282 002e 002B     		cmp	r3, #0
 283 0030 03D0     		beq	.L7
 284              		.loc 1 79 29 discriminator 1 view .LVU80
 285 0032 804B     		ldr	r3, .L43
 286 0034 1B78     		ldrb	r3, [r3]
 287              		.loc 1 79 16 discriminator 1 view .LVU81
 288 0036 002B     		cmp	r3, #0
 289 0038 0FD0     		beq	.L33
 290              	.L7:
  80:Core/Src/control.c ****     {
  81:Core/Src/control.c ****         t_ds3231 *currentTime = getMinutesHours();
  82:Core/Src/control.c ****         setFrame(currentTime->hours, currentTime->minutes, ON_ALL);
  83:Core/Src/control.c ****         fReady = NO_READY;      
  84:Core/Src/control.c ****     }
  85:Core/Src/control.c **** 
  86:Core/Src/control.c ****     if (stateShow == DATE_SHOW)                 //индикация даты (число и мес
 291              		.loc 1 86 5 is_stmt 1 view .LVU82
 292              		.loc 1 86 19 is_stmt 0 view .LVU83
 293 003a 7E4B     		ldr	r3, .L43
 294 003c 1B78     		ldrb	r3, [r3]
 295              		.loc 1 86 8 view .LVU84
 296 003e 012B     		cmp	r3, #1
 297 0040 16D0     		beq	.L34
 298              	.L8:
ARM GAS  C:\Users\bvv64\AppData\Local\Temp\ccg7jOW9.s 			page 34


  87:Core/Src/control.c ****     {
  88:Core/Src/control.c ****         uint8_t date = getDate();
  89:Core/Src/control.c ****         uint8_t month = getMonth();
  90:Core/Src/control.c ****         setFrame(date, month, ON_ALL);
  91:Core/Src/control.c ****     }
  92:Core/Src/control.c **** 
  93:Core/Src/control.c ****     if (stateShow == YEAR_SHOW)                 //индикация года
 299              		.loc 1 93 5 is_stmt 1 view .LVU85
 300              		.loc 1 93 19 is_stmt 0 view .LVU86
 301 0042 7C4B     		ldr	r3, .L43
 302 0044 1B78     		ldrb	r3, [r3]
 303              		.loc 1 93 8 view .LVU87
 304 0046 022B     		cmp	r3, #2
 305 0048 1DD0     		beq	.L35
 306              	.L9:
  94:Core/Src/control.c ****     {
  95:Core/Src/control.c ****         uint8_t year = getYear();
  96:Core/Src/control.c ****         setFrame((uint8_t)20, year, ON_ALL);
  97:Core/Src/control.c ****     }
  98:Core/Src/control.c **** 
  99:Core/Src/control.c ****     if (getStateButSet())
 307              		.loc 1 99 5 is_stmt 1 view .LVU88
 308              		.loc 1 99 9 is_stmt 0 view .LVU89
 309 004a FFF7FEFF 		bl	getStateButSet
 310              	.LVL11:
 311              		.loc 1 99 8 view .LVU90
 312 004e 0028     		cmp	r0, #0
 313 0050 21D1     		bne	.L36
 314              	.L4:
 100:Core/Src/control.c ****     {
 101:Core/Src/control.c ****         stateShow = MINUTES_SET;
 102:Core/Src/control.c ****         //сохраняем текущие значения времени и даты в буфе
 103:Core/Src/control.c ****         t_ds3231 *buffTime = getMinutesHours();
 104:Core/Src/control.c ****         uint8_t buffMinutes = buffTime->minutes;
 105:Core/Src/control.c ****         uint8_t buffHours = buffTime->hours;
 106:Core/Src/control.c ****         uint8_t buffDate = getDate();
 107:Core/Src/control.c ****         uint8_t buffMonth = getMonth();
 108:Core/Src/control.c ****         uint8_t buffYear = getYear();
 109:Core/Src/control.c **** 
 110:Core/Src/control.c ****         setStateButSet(NO_PRESSED);
 111:Core/Src/control.c ****         setStateButSelect(NO_PRESSED);
 112:Core/Src/control.c ****         while (1)
 113:Core/Src/control.c ****         {
 114:Core/Src/control.c ****             if (getStateButSelect())
 115:Core/Src/control.c ****             {
 116:Core/Src/control.c ****                 stateShow++;
 117:Core/Src/control.c ****                 setStateButSelect(NO_PRESSED);
 118:Core/Src/control.c ****             }
 119:Core/Src/control.c **** 
 120:Core/Src/control.c ****             if (stateShow == MINUTES_SET)
 121:Core/Src/control.c ****             {
 122:Core/Src/control.c ****                 if (getStateButSet())
 123:Core/Src/control.c ****                 {
 124:Core/Src/control.c ****                     buffMinutes++;
 125:Core/Src/control.c ****                     if (buffMinutes > MAX_MINUTES) buffMinutes = 0;
 126:Core/Src/control.c ****                     setStateButSet(NO_PRESSED);
 127:Core/Src/control.c ****                 }
ARM GAS  C:\Users\bvv64\AppData\Local\Temp\ccg7jOW9.s 			page 35


 128:Core/Src/control.c **** 
 129:Core/Src/control.c ****                 setFrame(buffHours, buffMinutes, ON_21);
 130:Core/Src/control.c ****                 
 131:Core/Src/control.c ****                 if (buffMinutes != buffTime->minutes)
 132:Core/Src/control.c ****                 {
 133:Core/Src/control.c ****                     writeReg_DS3231(MINUTES, buffMinutes);
 134:Core/Src/control.c ****                     writeReg_DS3231(SECONDS, (uint8_t)0);
 135:Core/Src/control.c ****                 }
 136:Core/Src/control.c ****             }
 137:Core/Src/control.c **** 
 138:Core/Src/control.c ****             if (stateShow == HOURS_SET)
 139:Core/Src/control.c ****             {   
 140:Core/Src/control.c ****                 if (getStateButSet())
 141:Core/Src/control.c ****                 {
 142:Core/Src/control.c ****                     buffHours++;
 143:Core/Src/control.c ****                     if (buffHours > MAX_HOURS) buffHours = 0;
 144:Core/Src/control.c ****                     setStateButSet(NO_PRESSED);
 145:Core/Src/control.c ****                 }
 146:Core/Src/control.c **** 
 147:Core/Src/control.c ****                 setFrame(buffHours, buffMinutes, ON_43);
 148:Core/Src/control.c **** 
 149:Core/Src/control.c ****                 if (buffHours != buffTime->hours)
 150:Core/Src/control.c ****                 {
 151:Core/Src/control.c ****                     writeReg_DS3231(HOURS, buffHours);
 152:Core/Src/control.c ****                 }
 153:Core/Src/control.c ****             }
 154:Core/Src/control.c **** 
 155:Core/Src/control.c ****             if (stateShow == DATE_SET)
 156:Core/Src/control.c ****             {
 157:Core/Src/control.c ****                 if (getStateButSet())
 158:Core/Src/control.c ****                 {
 159:Core/Src/control.c ****                     buffDate++;
 160:Core/Src/control.c ****                     if (buffDate > MAX_DATE) buffDate = 1;
 161:Core/Src/control.c ****                     setStateButSet(NO_PRESSED);
 162:Core/Src/control.c ****                 }
 163:Core/Src/control.c ****                 
 164:Core/Src/control.c ****                 setFrame(buffDate, buffMonth, ON_43);
 165:Core/Src/control.c **** 
 166:Core/Src/control.c ****                 if (buffDate != getDate())
 167:Core/Src/control.c ****                 {
 168:Core/Src/control.c ****                     writeReg_DS3231(DATE, buffDate);
 169:Core/Src/control.c ****                 }
 170:Core/Src/control.c ****             }
 171:Core/Src/control.c **** 
 172:Core/Src/control.c ****             if (stateShow == MONTH_SET)
 173:Core/Src/control.c ****             {
 174:Core/Src/control.c ****                 if (getStateButSet())
 175:Core/Src/control.c ****                 {
 176:Core/Src/control.c ****                     buffMonth++;
 177:Core/Src/control.c ****                     if (buffMonth > MAX_MONTH) buffMonth = 1;
 178:Core/Src/control.c ****                     setStateButSet(NO_PRESSED);
 179:Core/Src/control.c ****                 }
 180:Core/Src/control.c ****                 
 181:Core/Src/control.c ****                 setFrame(buffDate, buffMonth, ON_21);
 182:Core/Src/control.c **** 
 183:Core/Src/control.c ****                 if (buffMonth != getMonth())
 184:Core/Src/control.c ****                 {
ARM GAS  C:\Users\bvv64\AppData\Local\Temp\ccg7jOW9.s 			page 36


 185:Core/Src/control.c ****                     writeReg_DS3231(MONTH_CENTURY, buffMonth);
 186:Core/Src/control.c ****                 }
 187:Core/Src/control.c ****             }
 188:Core/Src/control.c **** 
 189:Core/Src/control.c ****             if (stateShow == YEAR_SET)
 190:Core/Src/control.c ****             {   
 191:Core/Src/control.c ****                 if (getStateButSet())
 192:Core/Src/control.c ****                 {
 193:Core/Src/control.c ****                     buffYear++;
 194:Core/Src/control.c ****                     if (buffYear > MAX_YEAR) buffYear = 0;
 195:Core/Src/control.c ****                     setStateButSet(NO_PRESSED);
 196:Core/Src/control.c ****                 }
 197:Core/Src/control.c ****                 
 198:Core/Src/control.c ****                 setFrame((uint8_t)20, buffYear, ON_21);
 199:Core/Src/control.c **** 
 200:Core/Src/control.c ****                 if (buffYear != getYear())
 201:Core/Src/control.c ****                 {
 202:Core/Src/control.c ****                     writeReg_DS3231(YEAR, buffYear);
 203:Core/Src/control.c ****                 }
 204:Core/Src/control.c ****             }
 205:Core/Src/control.c **** 
 206:Core/Src/control.c ****             if (stateShow > YEAR_SET)
 207:Core/Src/control.c ****             {
 208:Core/Src/control.c ****                 setStateButSelect(NO_PRESSED);
 209:Core/Src/control.c ****                 setStateButSet(NO_PRESSED);
 210:Core/Src/control.c ****                 break;
 211:Core/Src/control.c ****             }
 212:Core/Src/control.c ****         }
 213:Core/Src/control.c ****         
 214:Core/Src/control.c ****     }
 215:Core/Src/control.c ****     
 216:Core/Src/control.c **** }
 315              		.loc 1 216 1 view .LVU91
 316              		@ sp needed
 317 0052 C0BC     		pop	{r6, r7}
 318 0054 B946     		mov	r9, r7
 319 0056 B046     		mov	r8, r6
 320 0058 F8BD     		pop	{r3, r4, r5, r6, r7, pc}
 321              	.L33:
 322              	.LBB18:
  81:Core/Src/control.c ****         setFrame(currentTime->hours, currentTime->minutes, ON_ALL);
 323              		.loc 1 81 9 is_stmt 1 view .LVU92
  81:Core/Src/control.c ****         setFrame(currentTime->hours, currentTime->minutes, ON_ALL);
 324              		.loc 1 81 33 is_stmt 0 view .LVU93
 325 005a FFF7FEFF 		bl	getMinutesHours
 326              	.LVL12:
  82:Core/Src/control.c ****         fReady = NO_READY;      
 327              		.loc 1 82 9 is_stmt 1 view .LVU94
 328 005e 0178     		ldrb	r1, [r0]
 329 0060 4078     		ldrb	r0, [r0, #1]
 330              	.LVL13:
  82:Core/Src/control.c ****         fReady = NO_READY;      
 331              		.loc 1 82 9 is_stmt 0 view .LVU95
 332 0062 0022     		movs	r2, #0
 333 0064 FFF7FEFF 		bl	setFrame
 334              	.LVL14:
  83:Core/Src/control.c ****     }
ARM GAS  C:\Users\bvv64\AppData\Local\Temp\ccg7jOW9.s 			page 37


 335              		.loc 1 83 9 is_stmt 1 view .LVU96
  83:Core/Src/control.c ****     }
 336              		.loc 1 83 16 is_stmt 0 view .LVU97
 337 0068 734B     		ldr	r3, .L43+4
 338 006a 0022     		movs	r2, #0
 339 006c 1A70     		strb	r2, [r3]
 340 006e E4E7     		b	.L7
 341              	.L34:
  83:Core/Src/control.c ****     }
 342              		.loc 1 83 16 view .LVU98
 343              	.LBE18:
 344              	.LBB19:
  88:Core/Src/control.c ****         uint8_t month = getMonth();
 345              		.loc 1 88 9 is_stmt 1 view .LVU99
  88:Core/Src/control.c ****         uint8_t month = getMonth();
 346              		.loc 1 88 24 is_stmt 0 view .LVU100
 347 0070 FFF7FEFF 		bl	getDate
 348              	.LVL15:
 349 0074 0400     		movs	r4, r0
 350              	.LVL16:
  89:Core/Src/control.c ****         setFrame(date, month, ON_ALL);
 351              		.loc 1 89 9 is_stmt 1 view .LVU101
  89:Core/Src/control.c ****         setFrame(date, month, ON_ALL);
 352              		.loc 1 89 25 is_stmt 0 view .LVU102
 353 0076 FFF7FEFF 		bl	getMonth
 354              	.LVL17:
 355 007a 0100     		movs	r1, r0
 356              	.LVL18:
  90:Core/Src/control.c ****     }
 357              		.loc 1 90 9 is_stmt 1 view .LVU103
 358 007c 0022     		movs	r2, #0
 359 007e 2000     		movs	r0, r4
 360 0080 FFF7FEFF 		bl	setFrame
 361              	.LVL19:
  90:Core/Src/control.c ****     }
 362              		.loc 1 90 9 is_stmt 0 view .LVU104
 363 0084 DDE7     		b	.L8
 364              	.LVL20:
 365              	.L35:
  90:Core/Src/control.c ****     }
 366              		.loc 1 90 9 view .LVU105
 367              	.LBE19:
 368              	.LBB20:
  95:Core/Src/control.c ****         setFrame((uint8_t)20, year, ON_ALL);
 369              		.loc 1 95 9 is_stmt 1 view .LVU106
  95:Core/Src/control.c ****         setFrame((uint8_t)20, year, ON_ALL);
 370              		.loc 1 95 24 is_stmt 0 view .LVU107
 371 0086 FFF7FEFF 		bl	getYear
 372              	.LVL21:
 373 008a 0100     		movs	r1, r0
 374              	.LVL22:
  96:Core/Src/control.c ****     }
 375              		.loc 1 96 9 is_stmt 1 view .LVU108
 376 008c 0022     		movs	r2, #0
 377 008e 1420     		movs	r0, #20
 378 0090 FFF7FEFF 		bl	setFrame
 379              	.LVL23:
ARM GAS  C:\Users\bvv64\AppData\Local\Temp\ccg7jOW9.s 			page 38


  96:Core/Src/control.c ****     }
 380              		.loc 1 96 9 is_stmt 0 view .LVU109
 381 0094 D9E7     		b	.L9
 382              	.L36:
  96:Core/Src/control.c ****     }
 383              		.loc 1 96 9 view .LVU110
 384              	.LBE20:
 385              	.LBB21:
 101:Core/Src/control.c ****         //сохраняем текущие значения времени и даты в буфе
 386              		.loc 1 101 9 is_stmt 1 view .LVU111
 101:Core/Src/control.c ****         //сохраняем текущие значения времени и даты в буфе
 387              		.loc 1 101 19 is_stmt 0 view .LVU112
 388 0096 674B     		ldr	r3, .L43
 389 0098 0322     		movs	r2, #3
 390 009a 1A70     		strb	r2, [r3]
 103:Core/Src/control.c ****         uint8_t buffMinutes = buffTime->minutes;
 391              		.loc 1 103 9 is_stmt 1 view .LVU113
 103:Core/Src/control.c ****         uint8_t buffMinutes = buffTime->minutes;
 392              		.loc 1 103 30 is_stmt 0 view .LVU114
 393 009c FFF7FEFF 		bl	getMinutesHours
 394              	.LVL24:
 395 00a0 8146     		mov	r9, r0
 396              	.LVL25:
 104:Core/Src/control.c ****         uint8_t buffHours = buffTime->hours;
 397              		.loc 1 104 9 is_stmt 1 view .LVU115
 104:Core/Src/control.c ****         uint8_t buffHours = buffTime->hours;
 398              		.loc 1 104 17 is_stmt 0 view .LVU116
 399 00a2 0378     		ldrb	r3, [r0]
 400 00a4 9846     		mov	r8, r3
 401              	.LVL26:
 105:Core/Src/control.c ****         uint8_t buffDate = getDate();
 402              		.loc 1 105 9 is_stmt 1 view .LVU117
 105:Core/Src/control.c ****         uint8_t buffDate = getDate();
 403              		.loc 1 105 17 is_stmt 0 view .LVU118
 404 00a6 4778     		ldrb	r7, [r0, #1]
 405              	.LVL27:
 106:Core/Src/control.c ****         uint8_t buffMonth = getMonth();
 406              		.loc 1 106 9 is_stmt 1 view .LVU119
 106:Core/Src/control.c ****         uint8_t buffMonth = getMonth();
 407              		.loc 1 106 28 is_stmt 0 view .LVU120
 408 00a8 FFF7FEFF 		bl	getDate
 409              	.LVL28:
 106:Core/Src/control.c ****         uint8_t buffMonth = getMonth();
 410              		.loc 1 106 28 view .LVU121
 411 00ac 0500     		movs	r5, r0
 412              	.LVL29:
 107:Core/Src/control.c ****         uint8_t buffYear = getYear();
 413              		.loc 1 107 9 is_stmt 1 view .LVU122
 107:Core/Src/control.c ****         uint8_t buffYear = getYear();
 414              		.loc 1 107 29 is_stmt 0 view .LVU123
 415 00ae FFF7FEFF 		bl	getMonth
 416              	.LVL30:
 107:Core/Src/control.c ****         uint8_t buffYear = getYear();
 417              		.loc 1 107 29 view .LVU124
 418 00b2 0400     		movs	r4, r0
 419              	.LVL31:
 108:Core/Src/control.c **** 
ARM GAS  C:\Users\bvv64\AppData\Local\Temp\ccg7jOW9.s 			page 39


 420              		.loc 1 108 9 is_stmt 1 view .LVU125
 108:Core/Src/control.c **** 
 421              		.loc 1 108 28 is_stmt 0 view .LVU126
 422 00b4 FFF7FEFF 		bl	getYear
 423              	.LVL32:
 108:Core/Src/control.c **** 
 424              		.loc 1 108 28 view .LVU127
 425 00b8 0600     		movs	r6, r0
 426              	.LVL33:
 110:Core/Src/control.c ****         setStateButSelect(NO_PRESSED);
 427              		.loc 1 110 9 is_stmt 1 view .LVU128
 428 00ba 0020     		movs	r0, #0
 429              	.LVL34:
 110:Core/Src/control.c ****         setStateButSelect(NO_PRESSED);
 430              		.loc 1 110 9 is_stmt 0 view .LVU129
 431 00bc FFF7FEFF 		bl	setStateButSet
 432              	.LVL35:
 111:Core/Src/control.c ****         while (1)
 433              		.loc 1 111 9 is_stmt 1 view .LVU130
 434 00c0 0020     		movs	r0, #0
 435 00c2 FFF7FEFF 		bl	setStateButSelect
 436              	.LVL36:
 437 00c6 18E0     		b	.L27
 438              	.L11:
 120:Core/Src/control.c ****             {
 439              		.loc 1 120 13 view .LVU131
 120:Core/Src/control.c ****             {
 440              		.loc 1 120 27 is_stmt 0 view .LVU132
 441 00c8 5A4B     		ldr	r3, .L43
 442 00ca 1B78     		ldrb	r3, [r3]
 120:Core/Src/control.c ****             {
 443              		.loc 1 120 16 view .LVU133
 444 00cc 032B     		cmp	r3, #3
 445 00ce 20D0     		beq	.L37
 446              	.L12:
 138:Core/Src/control.c ****             {   
 447              		.loc 1 138 13 is_stmt 1 view .LVU134
 138:Core/Src/control.c ****             {   
 448              		.loc 1 138 27 is_stmt 0 view .LVU135
 449 00d0 584B     		ldr	r3, .L43
 450 00d2 1B78     		ldrb	r3, [r3]
 138:Core/Src/control.c ****             {   
 451              		.loc 1 138 16 view .LVU136
 452 00d4 042B     		cmp	r3, #4
 453 00d6 3DD0     		beq	.L38
 454              	.L15:
 155:Core/Src/control.c ****             {
 455              		.loc 1 155 13 is_stmt 1 view .LVU137
 155:Core/Src/control.c ****             {
 456              		.loc 1 155 27 is_stmt 0 view .LVU138
 457 00d8 564B     		ldr	r3, .L43
 458 00da 1B78     		ldrb	r3, [r3]
 155:Core/Src/control.c ****             {
 459              		.loc 1 155 16 view .LVU139
 460 00dc 052B     		cmp	r3, #5
 461 00de 53D0     		beq	.L39
 462              	.L18:
ARM GAS  C:\Users\bvv64\AppData\Local\Temp\ccg7jOW9.s 			page 40


 172:Core/Src/control.c ****             {
 463              		.loc 1 172 13 is_stmt 1 view .LVU140
 172:Core/Src/control.c ****             {
 464              		.loc 1 172 27 is_stmt 0 view .LVU141
 465 00e0 544B     		ldr	r3, .L43
 466 00e2 1B78     		ldrb	r3, [r3]
 172:Core/Src/control.c ****             {
 467              		.loc 1 172 16 view .LVU142
 468 00e4 062B     		cmp	r3, #6
 469 00e6 69D0     		beq	.L40
 470              	.L21:
 189:Core/Src/control.c ****             {   
 471              		.loc 1 189 13 is_stmt 1 view .LVU143
 189:Core/Src/control.c ****             {   
 472              		.loc 1 189 27 is_stmt 0 view .LVU144
 473 00e8 524B     		ldr	r3, .L43
 474 00ea 1B78     		ldrb	r3, [r3]
 189:Core/Src/control.c ****             {   
 475              		.loc 1 189 16 view .LVU145
 476 00ec 072B     		cmp	r3, #7
 477 00ee 7FD0     		beq	.L41
 478              	.L24:
 206:Core/Src/control.c ****             {
 479              		.loc 1 206 13 is_stmt 1 view .LVU146
 206:Core/Src/control.c ****             {
 480              		.loc 1 206 27 is_stmt 0 view .LVU147
 481 00f0 504B     		ldr	r3, .L43
 482 00f2 1B78     		ldrb	r3, [r3]
 206:Core/Src/control.c ****             {
 483              		.loc 1 206 16 view .LVU148
 484 00f4 072B     		cmp	r3, #7
 485 00f6 00D9     		bls	.LCB409
 486 00f8 95E0     		b	.L42	@long jump
 487              	.LCB409:
 488              	.LVL37:
 489              	.L27:
 112:Core/Src/control.c ****         {
 490              		.loc 1 112 9 is_stmt 1 view .LVU149
 114:Core/Src/control.c ****             {
 491              		.loc 1 114 13 view .LVU150
 114:Core/Src/control.c ****             {
 492              		.loc 1 114 17 is_stmt 0 view .LVU151
 493 00fa FFF7FEFF 		bl	getStateButSelect
 494              	.LVL38:
 114:Core/Src/control.c ****             {
 495              		.loc 1 114 16 view .LVU152
 496 00fe 0028     		cmp	r0, #0
 497 0100 E2D0     		beq	.L11
 116:Core/Src/control.c ****                 setStateButSelect(NO_PRESSED);
 498              		.loc 1 116 17 is_stmt 1 view .LVU153
 116:Core/Src/control.c ****                 setStateButSelect(NO_PRESSED);
 499              		.loc 1 116 26 is_stmt 0 view .LVU154
 500 0102 4C4A     		ldr	r2, .L43
 501 0104 1378     		ldrb	r3, [r2]
 502 0106 0133     		adds	r3, r3, #1
 503 0108 1370     		strb	r3, [r2]
 117:Core/Src/control.c ****             }
ARM GAS  C:\Users\bvv64\AppData\Local\Temp\ccg7jOW9.s 			page 41


 504              		.loc 1 117 17 is_stmt 1 view .LVU155
 505 010a 0020     		movs	r0, #0
 506 010c FFF7FEFF 		bl	setStateButSelect
 507              	.LVL39:
 508 0110 DAE7     		b	.L11
 509              	.L37:
 122:Core/Src/control.c ****                 {
 510              		.loc 1 122 17 view .LVU156
 122:Core/Src/control.c ****                 {
 511              		.loc 1 122 21 is_stmt 0 view .LVU157
 512 0112 FFF7FEFF 		bl	getStateButSet
 513              	.LVL40:
 122:Core/Src/control.c ****                 {
 514              		.loc 1 122 20 view .LVU158
 515 0116 0028     		cmp	r0, #0
 516 0118 0AD0     		beq	.L13
 124:Core/Src/control.c ****                     if (buffMinutes > MAX_MINUTES) buffMinutes = 0;
 517              		.loc 1 124 21 is_stmt 1 view .LVU159
 124:Core/Src/control.c ****                     if (buffMinutes > MAX_MINUTES) buffMinutes = 0;
 518              		.loc 1 124 32 is_stmt 0 view .LVU160
 519 011a 4346     		mov	r3, r8
 520 011c 0133     		adds	r3, r3, #1
 521 011e DBB2     		uxtb	r3, r3
 522 0120 9846     		mov	r8, r3
 523              	.LVL41:
 125:Core/Src/control.c ****                     setStateButSet(NO_PRESSED);
 524              		.loc 1 125 21 is_stmt 1 view .LVU161
 125:Core/Src/control.c ****                     setStateButSet(NO_PRESSED);
 525              		.loc 1 125 24 is_stmt 0 view .LVU162
 526 0122 3B2B     		cmp	r3, #59
 527 0124 01D9     		bls	.L14
 125:Core/Src/control.c ****                     setStateButSet(NO_PRESSED);
 528              		.loc 1 125 64 view .LVU163
 529 0126 0023     		movs	r3, #0
 530              	.LVL42:
 125:Core/Src/control.c ****                     setStateButSet(NO_PRESSED);
 531              		.loc 1 125 64 view .LVU164
 532 0128 9846     		mov	r8, r3
 533              	.LVL43:
 534              	.L14:
 126:Core/Src/control.c ****                 }
 535              		.loc 1 126 21 is_stmt 1 view .LVU165
 536 012a 0020     		movs	r0, #0
 537 012c FFF7FEFF 		bl	setStateButSet
 538              	.LVL44:
 539              	.L13:
 129:Core/Src/control.c ****                 
 540              		.loc 1 129 17 view .LVU166
 541 0130 0122     		movs	r2, #1
 542 0132 4146     		mov	r1, r8
 543 0134 3800     		movs	r0, r7
 544 0136 FFF7FEFF 		bl	setFrame
 545              	.LVL45:
 131:Core/Src/control.c ****                 {
 546              		.loc 1 131 17 view .LVU167
 131:Core/Src/control.c ****                 {
 547              		.loc 1 131 44 is_stmt 0 view .LVU168
ARM GAS  C:\Users\bvv64\AppData\Local\Temp\ccg7jOW9.s 			page 42


 548 013a 4B46     		mov	r3, r9
 549 013c 1B78     		ldrb	r3, [r3]
 131:Core/Src/control.c ****                 {
 550              		.loc 1 131 20 view .LVU169
 551 013e 4345     		cmp	r3, r8
 552 0140 C6D0     		beq	.L12
 133:Core/Src/control.c ****                     writeReg_DS3231(SECONDS, (uint8_t)0);
 553              		.loc 1 133 21 is_stmt 1 view .LVU170
 554 0142 4146     		mov	r1, r8
 555 0144 0120     		movs	r0, #1
 556 0146 FFF7FEFF 		bl	writeReg_DS3231
 557              	.LVL46:
 134:Core/Src/control.c ****                 }
 558              		.loc 1 134 21 view .LVU171
 559 014a 0021     		movs	r1, #0
 560 014c 0020     		movs	r0, #0
 561 014e FFF7FEFF 		bl	writeReg_DS3231
 562              	.LVL47:
 563 0152 BDE7     		b	.L12
 564              	.L38:
 140:Core/Src/control.c ****                 {
 565              		.loc 1 140 17 view .LVU172
 140:Core/Src/control.c ****                 {
 566              		.loc 1 140 21 is_stmt 0 view .LVU173
 567 0154 FFF7FEFF 		bl	getStateButSet
 568              	.LVL48:
 140:Core/Src/control.c ****                 {
 569              		.loc 1 140 20 view .LVU174
 570 0158 0028     		cmp	r0, #0
 571 015a 07D0     		beq	.L16
 142:Core/Src/control.c ****                     if (buffHours > MAX_HOURS) buffHours = 0;
 572              		.loc 1 142 21 is_stmt 1 view .LVU175
 142:Core/Src/control.c ****                     if (buffHours > MAX_HOURS) buffHours = 0;
 573              		.loc 1 142 30 is_stmt 0 view .LVU176
 574 015c 0137     		adds	r7, r7, #1
 575              	.LVL49:
 142:Core/Src/control.c ****                     if (buffHours > MAX_HOURS) buffHours = 0;
 576              		.loc 1 142 30 view .LVU177
 577 015e FFB2     		uxtb	r7, r7
 578              	.LVL50:
 143:Core/Src/control.c ****                     setStateButSet(NO_PRESSED);
 579              		.loc 1 143 21 is_stmt 1 view .LVU178
 143:Core/Src/control.c ****                     setStateButSet(NO_PRESSED);
 580              		.loc 1 143 24 is_stmt 0 view .LVU179
 581 0160 172F     		cmp	r7, #23
 582 0162 00D9     		bls	.L17
 143:Core/Src/control.c ****                     setStateButSet(NO_PRESSED);
 583              		.loc 1 143 58 view .LVU180
 584 0164 0027     		movs	r7, #0
 585              	.LVL51:
 586              	.L17:
 144:Core/Src/control.c ****                 }
 587              		.loc 1 144 21 is_stmt 1 view .LVU181
 588 0166 0020     		movs	r0, #0
 589 0168 FFF7FEFF 		bl	setStateButSet
 590              	.LVL52:
 591              	.L16:
ARM GAS  C:\Users\bvv64\AppData\Local\Temp\ccg7jOW9.s 			page 43


 147:Core/Src/control.c **** 
 592              		.loc 1 147 17 view .LVU182
 593 016c 0222     		movs	r2, #2
 594 016e 4146     		mov	r1, r8
 595 0170 3800     		movs	r0, r7
 596 0172 FFF7FEFF 		bl	setFrame
 597              	.LVL53:
 149:Core/Src/control.c ****                 {
 598              		.loc 1 149 17 view .LVU183
 149:Core/Src/control.c ****                 {
 599              		.loc 1 149 42 is_stmt 0 view .LVU184
 600 0176 4B46     		mov	r3, r9
 601 0178 5B78     		ldrb	r3, [r3, #1]
 149:Core/Src/control.c ****                 {
 602              		.loc 1 149 20 view .LVU185
 603 017a BB42     		cmp	r3, r7
 604 017c ACD0     		beq	.L15
 151:Core/Src/control.c ****                 }
 605              		.loc 1 151 21 is_stmt 1 view .LVU186
 606 017e 3900     		movs	r1, r7
 607 0180 0220     		movs	r0, #2
 608 0182 FFF7FEFF 		bl	writeReg_DS3231
 609              	.LVL54:
 610 0186 A7E7     		b	.L15
 611              	.L39:
 157:Core/Src/control.c ****                 {
 612              		.loc 1 157 17 view .LVU187
 157:Core/Src/control.c ****                 {
 613              		.loc 1 157 21 is_stmt 0 view .LVU188
 614 0188 FFF7FEFF 		bl	getStateButSet
 615              	.LVL55:
 157:Core/Src/control.c ****                 {
 616              		.loc 1 157 20 view .LVU189
 617 018c 0028     		cmp	r0, #0
 618 018e 07D0     		beq	.L19
 159:Core/Src/control.c ****                     if (buffDate > MAX_DATE) buffDate = 1;
 619              		.loc 1 159 21 is_stmt 1 view .LVU190
 159:Core/Src/control.c ****                     if (buffDate > MAX_DATE) buffDate = 1;
 620              		.loc 1 159 29 is_stmt 0 view .LVU191
 621 0190 0135     		adds	r5, r5, #1
 622              	.LVL56:
 159:Core/Src/control.c ****                     if (buffDate > MAX_DATE) buffDate = 1;
 623              		.loc 1 159 29 view .LVU192
 624 0192 EDB2     		uxtb	r5, r5
 625              	.LVL57:
 160:Core/Src/control.c ****                     setStateButSet(NO_PRESSED);
 626              		.loc 1 160 21 is_stmt 1 view .LVU193
 160:Core/Src/control.c ****                     setStateButSet(NO_PRESSED);
 627              		.loc 1 160 24 is_stmt 0 view .LVU194
 628 0194 1F2D     		cmp	r5, #31
 629 0196 00D9     		bls	.L20
 160:Core/Src/control.c ****                     setStateButSet(NO_PRESSED);
 630              		.loc 1 160 55 view .LVU195
 631 0198 0125     		movs	r5, #1
 632              	.LVL58:
 633              	.L20:
 161:Core/Src/control.c ****                 }
ARM GAS  C:\Users\bvv64\AppData\Local\Temp\ccg7jOW9.s 			page 44


 634              		.loc 1 161 21 is_stmt 1 view .LVU196
 635 019a 0020     		movs	r0, #0
 636 019c FFF7FEFF 		bl	setStateButSet
 637              	.LVL59:
 638              	.L19:
 164:Core/Src/control.c **** 
 639              		.loc 1 164 17 view .LVU197
 640 01a0 0222     		movs	r2, #2
 641 01a2 2100     		movs	r1, r4
 642 01a4 2800     		movs	r0, r5
 643 01a6 FFF7FEFF 		bl	setFrame
 644              	.LVL60:
 166:Core/Src/control.c ****                 {
 645              		.loc 1 166 17 view .LVU198
 166:Core/Src/control.c ****                 {
 646              		.loc 1 166 33 is_stmt 0 view .LVU199
 647 01aa FFF7FEFF 		bl	getDate
 648              	.LVL61:
 166:Core/Src/control.c ****                 {
 649              		.loc 1 166 20 view .LVU200
 650 01ae A842     		cmp	r0, r5
 651 01b0 96D0     		beq	.L18
 168:Core/Src/control.c ****                 }
 652              		.loc 1 168 21 is_stmt 1 view .LVU201
 653 01b2 2900     		movs	r1, r5
 654 01b4 0420     		movs	r0, #4
 655 01b6 FFF7FEFF 		bl	writeReg_DS3231
 656              	.LVL62:
 657 01ba 91E7     		b	.L18
 658              	.L40:
 174:Core/Src/control.c ****                 {
 659              		.loc 1 174 17 view .LVU202
 174:Core/Src/control.c ****                 {
 660              		.loc 1 174 21 is_stmt 0 view .LVU203
 661 01bc FFF7FEFF 		bl	getStateButSet
 662              	.LVL63:
 174:Core/Src/control.c ****                 {
 663              		.loc 1 174 20 view .LVU204
 664 01c0 0028     		cmp	r0, #0
 665 01c2 07D0     		beq	.L22
 176:Core/Src/control.c ****                     if (buffMonth > MAX_MONTH) buffMonth = 1;
 666              		.loc 1 176 21 is_stmt 1 view .LVU205
 176:Core/Src/control.c ****                     if (buffMonth > MAX_MONTH) buffMonth = 1;
 667              		.loc 1 176 30 is_stmt 0 view .LVU206
 668 01c4 0134     		adds	r4, r4, #1
 669              	.LVL64:
 176:Core/Src/control.c ****                     if (buffMonth > MAX_MONTH) buffMonth = 1;
 670              		.loc 1 176 30 view .LVU207
 671 01c6 E4B2     		uxtb	r4, r4
 672              	.LVL65:
 177:Core/Src/control.c ****                     setStateButSet(NO_PRESSED);
 673              		.loc 1 177 21 is_stmt 1 view .LVU208
 177:Core/Src/control.c ****                     setStateButSet(NO_PRESSED);
 674              		.loc 1 177 24 is_stmt 0 view .LVU209
 675 01c8 0C2C     		cmp	r4, #12
 676 01ca 00D9     		bls	.L23
 177:Core/Src/control.c ****                     setStateButSet(NO_PRESSED);
ARM GAS  C:\Users\bvv64\AppData\Local\Temp\ccg7jOW9.s 			page 45


 677              		.loc 1 177 58 view .LVU210
 678 01cc 0124     		movs	r4, #1
 679              	.LVL66:
 680              	.L23:
 178:Core/Src/control.c ****                 }
 681              		.loc 1 178 21 is_stmt 1 view .LVU211
 682 01ce 0020     		movs	r0, #0
 683 01d0 FFF7FEFF 		bl	setStateButSet
 684              	.LVL67:
 685              	.L22:
 181:Core/Src/control.c **** 
 686              		.loc 1 181 17 view .LVU212
 687 01d4 0122     		movs	r2, #1
 688 01d6 2100     		movs	r1, r4
 689 01d8 2800     		movs	r0, r5
 690 01da FFF7FEFF 		bl	setFrame
 691              	.LVL68:
 183:Core/Src/control.c ****                 {
 692              		.loc 1 183 17 view .LVU213
 183:Core/Src/control.c ****                 {
 693              		.loc 1 183 34 is_stmt 0 view .LVU214
 694 01de FFF7FEFF 		bl	getMonth
 695              	.LVL69:
 183:Core/Src/control.c ****                 {
 696              		.loc 1 183 20 view .LVU215
 697 01e2 A042     		cmp	r0, r4
 698 01e4 80D0     		beq	.L21
 185:Core/Src/control.c ****                 }
 699              		.loc 1 185 21 is_stmt 1 view .LVU216
 700 01e6 2100     		movs	r1, r4
 701 01e8 0520     		movs	r0, #5
 702 01ea FFF7FEFF 		bl	writeReg_DS3231
 703              	.LVL70:
 704 01ee 7BE7     		b	.L21
 705              	.L41:
 191:Core/Src/control.c ****                 {
 706              		.loc 1 191 17 view .LVU217
 191:Core/Src/control.c ****                 {
 707              		.loc 1 191 21 is_stmt 0 view .LVU218
 708 01f0 FFF7FEFF 		bl	getStateButSet
 709              	.LVL71:
 191:Core/Src/control.c ****                 {
 710              		.loc 1 191 20 view .LVU219
 711 01f4 0028     		cmp	r0, #0
 712 01f6 07D0     		beq	.L25
 193:Core/Src/control.c ****                     if (buffYear > MAX_YEAR) buffYear = 0;
 713              		.loc 1 193 21 is_stmt 1 view .LVU220
 193:Core/Src/control.c ****                     if (buffYear > MAX_YEAR) buffYear = 0;
 714              		.loc 1 193 29 is_stmt 0 view .LVU221
 715 01f8 0136     		adds	r6, r6, #1
 716              	.LVL72:
 193:Core/Src/control.c ****                     if (buffYear > MAX_YEAR) buffYear = 0;
 717              		.loc 1 193 29 view .LVU222
 718 01fa F6B2     		uxtb	r6, r6
 719              	.LVL73:
 194:Core/Src/control.c ****                     setStateButSet(NO_PRESSED);
 720              		.loc 1 194 21 is_stmt 1 view .LVU223
ARM GAS  C:\Users\bvv64\AppData\Local\Temp\ccg7jOW9.s 			page 46


 194:Core/Src/control.c ****                     setStateButSet(NO_PRESSED);
 721              		.loc 1 194 24 is_stmt 0 view .LVU224
 722 01fc 632E     		cmp	r6, #99
 723 01fe 00D9     		bls	.L26
 194:Core/Src/control.c ****                     setStateButSet(NO_PRESSED);
 724              		.loc 1 194 55 view .LVU225
 725 0200 0026     		movs	r6, #0
 726              	.LVL74:
 727              	.L26:
 195:Core/Src/control.c ****                 }
 728              		.loc 1 195 21 is_stmt 1 view .LVU226
 729 0202 0020     		movs	r0, #0
 730 0204 FFF7FEFF 		bl	setStateButSet
 731              	.LVL75:
 732              	.L25:
 198:Core/Src/control.c **** 
 733              		.loc 1 198 17 view .LVU227
 734 0208 0122     		movs	r2, #1
 735 020a 3100     		movs	r1, r6
 736 020c 1420     		movs	r0, #20
 737 020e FFF7FEFF 		bl	setFrame
 738              	.LVL76:
 200:Core/Src/control.c ****                 {
 739              		.loc 1 200 17 view .LVU228
 200:Core/Src/control.c ****                 {
 740              		.loc 1 200 33 is_stmt 0 view .LVU229
 741 0212 FFF7FEFF 		bl	getYear
 742              	.LVL77:
 200:Core/Src/control.c ****                 {
 743              		.loc 1 200 20 view .LVU230
 744 0216 B042     		cmp	r0, r6
 745 0218 00D1     		bne	.LCB665
 746 021a 69E7     		b	.L24	@long jump
 747              	.LCB665:
 202:Core/Src/control.c ****                 }
 748              		.loc 1 202 21 is_stmt 1 view .LVU231
 749 021c 3100     		movs	r1, r6
 750 021e 0620     		movs	r0, #6
 751 0220 FFF7FEFF 		bl	writeReg_DS3231
 752              	.LVL78:
 753 0224 64E7     		b	.L24
 754              	.L42:
 208:Core/Src/control.c ****                 setStateButSet(NO_PRESSED);
 755              		.loc 1 208 17 view .LVU232
 756 0226 0020     		movs	r0, #0
 757 0228 FFF7FEFF 		bl	setStateButSelect
 758              	.LVL79:
 209:Core/Src/control.c ****                 break;
 759              		.loc 1 209 17 view .LVU233
 760 022c 0020     		movs	r0, #0
 761 022e FFF7FEFF 		bl	setStateButSet
 762              	.LVL80:
 210:Core/Src/control.c ****             }
 763              		.loc 1 210 17 view .LVU234
 764              	.LBE21:
 765              		.loc 1 216 1 is_stmt 0 view .LVU235
 766 0232 0EE7     		b	.L4
ARM GAS  C:\Users\bvv64\AppData\Local\Temp\ccg7jOW9.s 			page 47


 767              	.L44:
 768              		.align	2
 769              	.L43:
 770 0234 00000000 		.word	.LANCHOR0
 771 0238 00000000 		.word	.LANCHOR1
 772              		.cfi_endproc
 773              	.LFE335:
 775              		.section	.text.TIM14_IRQHandler,"ax",%progbits
 776              		.align	1
 777              		.global	TIM14_IRQHandler
 778              		.syntax unified
 779              		.code	16
 780              		.thumb_func
 782              	TIM14_IRQHandler:
 783              	.LFB336:
 217:Core/Src/control.c **** void TIM14_IRQHandler(void){
 784              		.loc 1 217 28 is_stmt 1 view -0
 785              		.cfi_startproc
 786              		@ args = 0, pretend = 0, frame = 0
 787              		@ frame_needed = 0, uses_anonymous_args = 0
 788 0000 10B5     		push	{r4, lr}
 789              	.LCFI4:
 790              		.cfi_def_cfa_offset 8
 791              		.cfi_offset 4, -8
 792              		.cfi_offset 14, -4
 218:Core/Src/control.c ****     fReady = READY;
 793              		.loc 1 218 5 view .LVU237
 794              		.loc 1 218 12 is_stmt 0 view .LVU238
 795 0002 0124     		movs	r4, #1
 796 0004 044B     		ldr	r3, .L46
 797 0006 1C70     		strb	r4, [r3]
 219:Core/Src/control.c ****     incCount();
 798              		.loc 1 219 5 is_stmt 1 view .LVU239
 799 0008 FFF7FEFF 		bl	incCount
 800              	.LVL81:
 220:Core/Src/control.c ****     TIM14->SR &= ~TIM_SR_UIF;
 801              		.loc 1 220 5 view .LVU240
 802              		.loc 1 220 15 is_stmt 0 view .LVU241
 803 000c 034A     		ldr	r2, .L46+4
 804 000e 1369     		ldr	r3, [r2, #16]
 805 0010 A343     		bics	r3, r4
 806 0012 1361     		str	r3, [r2, #16]
 221:Core/Src/control.c **** }
 807              		.loc 1 221 1 view .LVU242
 808              		@ sp needed
 809 0014 10BD     		pop	{r4, pc}
 810              	.L47:
 811 0016 C046     		.align	2
 812              	.L46:
 813 0018 00000000 		.word	.LANCHOR1
 814 001c 00200040 		.word	1073750016
 815              		.cfi_endproc
 816              	.LFE336:
 818              		.section	.text.TIM17_IRQHandler,"ax",%progbits
 819              		.align	1
 820              		.global	TIM17_IRQHandler
 821              		.syntax unified
ARM GAS  C:\Users\bvv64\AppData\Local\Temp\ccg7jOW9.s 			page 48


 822              		.code	16
 823              		.thumb_func
 825              	TIM17_IRQHandler:
 826              	.LFB337:
 222:Core/Src/control.c **** 
 223:Core/Src/control.c **** void TIM17_IRQHandler(void){        //управление светодиодами "двоеточ
 827              		.loc 1 223 28 is_stmt 1 view -0
 828              		.cfi_startproc
 829              		@ args = 0, pretend = 0, frame = 0
 830              		@ frame_needed = 0, uses_anonymous_args = 0
 831              		@ link register save eliminated.
 224:Core/Src/control.c ****     if (stateShow == TIME_SHOW){    //светодиоды меняют состояние
 832              		.loc 1 224 5 view .LVU244
 833              		.loc 1 224 19 is_stmt 0 view .LVU245
 834 0000 164B     		ldr	r3, .L54
 835 0002 1B78     		ldrb	r3, [r3]
 836              		.loc 1 224 8 view .LVU246
 837 0004 002B     		cmp	r3, #0
 838 0006 09D1     		bne	.L49
 225:Core/Src/control.c ****         GPIOA->ODR ^= GPIO_ODR_0;
 839              		.loc 1 225 9 is_stmt 1 view .LVU247
 840              		.loc 1 225 20 is_stmt 0 view .LVU248
 841 0008 9022     		movs	r2, #144
 842 000a D205     		lsls	r2, r2, #23
 843 000c 5169     		ldr	r1, [r2, #20]
 844 000e 0120     		movs	r0, #1
 845 0010 4140     		eors	r1, r0
 846 0012 5161     		str	r1, [r2, #20]
 226:Core/Src/control.c ****         GPIOA->ODR ^= GPIO_ODR_1;
 847              		.loc 1 226 9 is_stmt 1 view .LVU249
 848              		.loc 1 226 20 is_stmt 0 view .LVU250
 849 0014 5169     		ldr	r1, [r2, #20]
 850 0016 0130     		adds	r0, r0, #1
 851 0018 4140     		eors	r1, r0
 852 001a 5161     		str	r1, [r2, #20]
 853              	.L49:
 227:Core/Src/control.c ****     }
 228:Core/Src/control.c ****     
 229:Core/Src/control.c ****     if (stateShow == DATE_SHOW){    //светодиоды включены
 854              		.loc 1 229 5 is_stmt 1 view .LVU251
 855              		.loc 1 229 8 is_stmt 0 view .LVU252
 856 001c 012B     		cmp	r3, #1
 857 001e 07D0     		beq	.L52
 858              	.L50:
 230:Core/Src/control.c ****         GPIOA->ODR |= GPIO_ODR_0;
 231:Core/Src/control.c ****         GPIOA->ODR |= GPIO_ODR_1;
 232:Core/Src/control.c ****     }
 233:Core/Src/control.c **** 
 234:Core/Src/control.c ****     if (stateShow == YEAR_SHOW){    //светодиоды выключены
 859              		.loc 1 234 5 is_stmt 1 view .LVU253
 860              		.loc 1 234 8 is_stmt 0 view .LVU254
 861 0020 022B     		cmp	r3, #2
 862 0022 10D0     		beq	.L53
 863              	.L51:
 235:Core/Src/control.c ****         GPIOA->ODR &= ~GPIO_ODR_0;
 236:Core/Src/control.c ****         GPIOA->ODR &= ~GPIO_ODR_1;
 237:Core/Src/control.c ****     }
ARM GAS  C:\Users\bvv64\AppData\Local\Temp\ccg7jOW9.s 			page 49


 238:Core/Src/control.c ****     
 239:Core/Src/control.c ****     TIM17->SR &= ~TIM_SR_UIF;
 864              		.loc 1 239 5 is_stmt 1 view .LVU255
 865              		.loc 1 239 15 is_stmt 0 view .LVU256
 866 0024 0E4A     		ldr	r2, .L54+4
 867 0026 1369     		ldr	r3, [r2, #16]
 868 0028 0121     		movs	r1, #1
 869 002a 8B43     		bics	r3, r1
 870 002c 1361     		str	r3, [r2, #16]
 240:Core/Src/control.c **** }...
 871              		.loc 1 240 1 view .LVU257
 872              		@ sp needed
 873 002e 7047     		bx	lr
 874              	.L52:
 230:Core/Src/control.c ****         GPIOA->ODR |= GPIO_ODR_0;
 875              		.loc 1 230 9 is_stmt 1 view .LVU258
 230:Core/Src/control.c ****         GPIOA->ODR |= GPIO_ODR_0;
 876              		.loc 1 230 20 is_stmt 0 view .LVU259
 877 0030 9022     		movs	r2, #144
 878 0032 D205     		lsls	r2, r2, #23
 879 0034 5169     		ldr	r1, [r2, #20]
 880 0036 0120     		movs	r0, #1
 881 0038 0143     		orrs	r1, r0
 882 003a 5161     		str	r1, [r2, #20]
 231:Core/Src/control.c ****         GPIOA->ODR |= GPIO_ODR_1;
 883              		.loc 1 231 9 is_stmt 1 view .LVU260
 231:Core/Src/control.c ****         GPIOA->ODR |= GPIO_ODR_1;
 884              		.loc 1 231 20 is_stmt 0 view .LVU261
 885 003c 5169     		ldr	r1, [r2, #20]
 886 003e 0130     		adds	r0, r0, #1
 887 0040 0143     		orrs	r1, r0
 888 0042 5161     		str	r1, [r2, #20]
 889 0044 ECE7     		b	.L50
 890              	.L53:
 235:Core/Src/control.c ****         GPIOA->ODR &= ~GPIO_ODR_0;
 891              		.loc 1 235 9 is_stmt 1 view .LVU262
 235:Core/Src/control.c ****         GPIOA->ODR &= ~GPIO_ODR_0;
 892              		.loc 1 235 20 is_stmt 0 view .LVU263
 893 0046 9023     		movs	r3, #144
 894 0048 DB05     		lsls	r3, r3, #23
 895 004a 5A69     		ldr	r2, [r3, #20]
 896 004c 0121     		movs	r1, #1
 897 004e 8A43     		bics	r2, r1
 898 0050 5A61     		str	r2, [r3, #20]
 236:Core/Src/control.c ****         GPIOA->ODR &= ~GPIO_ODR_1;
 899              		.loc 1 236 9 is_stmt 1 view .LVU264
 236:Core/Src/control.c ****         GPIOA->ODR &= ~GPIO_ODR_1;
 900              		.loc 1 236 20 is_stmt 0 view .LVU265
 901 0052 5A69     		ldr	r2, [r3, #20]
 902 0054 0131     		adds	r1, r1, #1
 903 0056 8A43     		bics	r2, r1
 904 0058 5A61     		str	r2, [r3, #20]
 905 005a E3E7     		b	.L51
 906              	.L55:
 907              		.align	2
 908              	.L54:
 909 005c 00000000 		.word	.LANCHOR0
ARM GAS  C:\Users\bvv64\AppData\Local\Temp\ccg7jOW9.s 			page 50


 910 0060 00480140 		.word	1073825792
 911              		.cfi_endproc
 912              	.LFE337:
 914              		.global	MAX_YEAR
 915              		.global	MAX_MONTH
 916              		.global	MAX_DATE
 917              		.global	MAX_HOURS
 918              		.global	MAX_MINUTES
 919              		.global	butSelect
 920              		.global	butSet
 921              		.global	stateShow
 922              		.global	fReady
 923              		.section	.bss.butSelect,"aw",%nobits
 926              	butSelect:
 927 0000 00       		.space	1
 928              		.section	.bss.butSet,"aw",%nobits
 931              	butSet:
 932 0000 00       		.space	1
 933              		.section	.bss.fReady,"aw",%nobits
 934              		.set	.LANCHOR1,. + 0
 937              	fReady:
 938 0000 00       		.space	1
 939              		.section	.bss.stateShow,"aw",%nobits
 940              		.set	.LANCHOR0,. + 0
 943              	stateShow:
 944 0000 00       		.space	1
 945              		.section	.rodata.MAX_DATE,"a"
 948              	MAX_DATE:
 949 0000 1F       		.byte	31
 950              		.section	.rodata.MAX_HOURS,"a"
 953              	MAX_HOURS:
 954 0000 17       		.byte	23
 955              		.section	.rodata.MAX_MINUTES,"a"
 958              	MAX_MINUTES:
 959 0000 3B       		.byte	59
 960              		.section	.rodata.MAX_MONTH,"a"
 963              	MAX_MONTH:
 964 0000 0C       		.byte	12
 965              		.section	.rodata.MAX_YEAR,"a"
 968              	MAX_YEAR:
 969 0000 63       		.byte	99
 970              		.text
 971              	.Letext0:
 972              		.file 4 "Drivers/CMSIS/Device/ST/STM32F0xx/Include/stm32f030x6.h"
 973              		.file 5 "c:\\gnu_mcu\\xpack-arm-none-eabi-gcc-10.3.1-2.3\\arm-none-eabi\\include\\machine\\_defaul
 974              		.file 6 "c:\\gnu_mcu\\xpack-arm-none-eabi-gcc-10.3.1-2.3\\arm-none-eabi\\include\\sys\\_stdint.h"
 975              		.file 7 "Core/Inc/ds3231.h"
 976              		.file 8 "Core/Inc/spi_in12.h"
 977              		.file 9 "Core/Inc/buttons.h"
 978              		.file 10 "Core/Inc/control.h"
 979              		.file 11 "Drivers/STM32F0xx_HAL_Driver/Inc/stm32f0xx_ll_dma.h"
 980              		.file 12 "<built-in>"
ARM GAS  C:\Users\bvv64\AppData\Local\Temp\ccg7jOW9.s 			page 51

